TN:
SF:/usr/include/c++/9/ext/new_allocator.h
FN:80,_ZN9__gnu_cxx13new_allocatorIcEC2Ev
FNDA:0,_ZN9__gnu_cxx13new_allocatorIcEC2Ev
FN:83,_ZN9__gnu_cxx13new_allocatorIcEC2ERKS1_
FNDA:0,_ZN9__gnu_cxx13new_allocatorIcEC2ERKS1_
FN:89,_ZN9__gnu_cxx13new_allocatorIcED2Ev
FNDA:0,_ZN9__gnu_cxx13new_allocatorIcED2Ev
DA:80,0
DA:83,0
DA:89,0
end_of_record
SF:/usr/include/c++/9/ext/type_traits.h
FN:152,_ZN9__gnu_cxx17__is_null_pointerIcEEbPT_
FNDA:0,_ZN9__gnu_cxx17__is_null_pointerIcEEbPT_
FN:152,_ZN9__gnu_cxx17__is_null_pointerIKcEEbPT_
FNDA:0,_ZN9__gnu_cxx17__is_null_pointerIKcEEbPT_
DA:152,0
DA:153,0
DA:152,0
DA:153,0
end_of_record
SF:/usr/include/c++/9/bits/char_traits.h
FN:315,_ZNSt11char_traitsIcE7compareEPKcS2_m
FNDA:24,_ZNSt11char_traitsIcE7compareEPKcS2_m
FN:329,_ZNSt11char_traitsIcE6lengthEPKc
FNDA:0,_ZNSt11char_traitsIcE6lengthEPKc
DA:315,24
DA:317,24
DA:318,0
DA:325,24
DA:329,0
DA:335,0
end_of_record
SF:/usr/include/c++/9/bits/ios_base.h
FN:83,_ZStanSt13_Ios_FmtflagsS_
FNDA:1628,_ZStanSt13_Ios_FmtflagsS_
FN:87,_ZStorSt13_Ios_FmtflagsS_
FNDA:814,_ZStorSt13_Ios_FmtflagsS_
FN:95,_ZStcoSt13_Ios_Fmtflags
FNDA:814,_ZStcoSt13_Ios_Fmtflags
FN:99,_ZStoRRSt13_Ios_FmtflagsS_
FNDA:814,_ZStoRRSt13_Ios_FmtflagsS_
FN:103,_ZStaNRSt13_Ios_FmtflagsS_
FNDA:814,_ZStaNRSt13_Ios_FmtflagsS_
FN:670,_ZNSt8ios_base4setfESt13_Ios_FmtflagsS0_
FNDA:814,_ZNSt8ios_base4setfESt13_Ios_FmtflagsS0_
FN:1031,_ZSt3hexRSt8ios_base
FNDA:814,_ZSt3hexRSt8ios_base
DA:83,1628
DA:84,1628
DA:87,814
DA:88,814
DA:95,814
DA:96,814
DA:99,814
DA:100,814
DA:103,814
DA:104,814
DA:670,814
DA:672,814
DA:673,814
DA:674,814
DA:675,814
DA:1031,814
DA:1033,814
DA:1034,814
end_of_record
SF:/usr/include/gtest/gtest-message.h
end_of_record
SF:/usr/include/c++/9/bits/unique_ptr.h
FN:75,_ZNKSt14default_deleteINSt7__cxx1112basic_stringIcSt11char_traitsIcESaIcEEEEclEPS5_
FNDA:0,_ZNKSt14default_deleteINSt7__cxx1112basic_stringIcSt11char_traitsIcESaIcEEEEclEPS5_
FN:75,_ZNKSt14default_deleteINSt7__cxx1118basic_stringstreamIcSt11char_traitsIcESaIcEEEEclEPS5_
FNDA:0,_ZNKSt14default_deleteINSt7__cxx1118basic_stringstreamIcSt11char_traitsIcESaIcEEEEclEPS5_
FN:153,_ZNSt15__uniq_ptr_implINSt7__cxx1112basic_stringIcSt11char_traitsIcESaIcEEESt14default_deleteIS5_EE6_M_ptrEv
FNDA:24,_ZNSt15__uniq_ptr_implINSt7__cxx1112basic_stringIcSt11char_traitsIcESaIcEEESt14default_deleteIS5_EE6_M_ptrEv
FN:153,_ZNSt15__uniq_ptr_implINSt7__cxx1118basic_stringstreamIcSt11char_traitsIcESaIcEEESt14default_deleteIS5_EE6_M_ptrEv
FNDA:0,_ZNSt15__uniq_ptr_implINSt7__cxx1118basic_stringstreamIcSt11char_traitsIcESaIcEEESt14default_deleteIS5_EE6_M_ptrEv
FN:154,_ZNKSt15__uniq_ptr_implINSt7__cxx1112basic_stringIcSt11char_traitsIcESaIcEEESt14default_deleteIS5_EE6_M_ptrEv
FNDA:0,_ZNKSt15__uniq_ptr_implINSt7__cxx1112basic_stringIcSt11char_traitsIcESaIcEEESt14default_deleteIS5_EE6_M_ptrEv
FN:155,_ZNSt15__uniq_ptr_implINSt7__cxx1112basic_stringIcSt11char_traitsIcESaIcEEESt14default_deleteIS5_EE10_M_deleterEv
FNDA:0,_ZNSt15__uniq_ptr_implINSt7__cxx1112basic_stringIcSt11char_traitsIcESaIcEEESt14default_deleteIS5_EE10_M_deleterEv
FN:155,_ZNSt15__uniq_ptr_implINSt7__cxx1118basic_stringstreamIcSt11char_traitsIcESaIcEEESt14default_deleteIS5_EE10_M_deleterEv
FNDA:0,_ZNSt15__uniq_ptr_implINSt7__cxx1118basic_stringstreamIcSt11char_traitsIcESaIcEEESt14default_deleteIS5_EE10_M_deleterEv
FN:286,_ZNSt10unique_ptrINSt7__cxx1112basic_stringIcSt11char_traitsIcESaIcEEESt14default_deleteIS5_EED2Ev
FNDA:24,_ZNSt10unique_ptrINSt7__cxx1112basic_stringIcSt11char_traitsIcESaIcEEESt14default_deleteIS5_EED2Ev
FN:286,_ZNSt10unique_ptrINSt7__cxx1118basic_stringstreamIcSt11char_traitsIcESaIcEEESt14default_deleteIS5_EED2Ev
FNDA:0,_ZNSt10unique_ptrINSt7__cxx1118basic_stringstreamIcSt11char_traitsIcESaIcEEESt14default_deleteIS5_EED2Ev
FN:352,_ZNKSt10unique_ptrINSt7__cxx1112basic_stringIcSt11char_traitsIcESaIcEEESt14default_deleteIS5_EEptEv
FNDA:0,_ZNKSt10unique_ptrINSt7__cxx1112basic_stringIcSt11char_traitsIcESaIcEEESt14default_deleteIS5_EEptEv
FN:360,_ZNKSt10unique_ptrINSt7__cxx1112basic_stringIcSt11char_traitsIcESaIcEEESt14default_deleteIS5_EE3getEv
FNDA:0,_ZNKSt10unique_ptrINSt7__cxx1112basic_stringIcSt11char_traitsIcESaIcEEESt14default_deleteIS5_EE3getEv
FN:365,_ZNSt10unique_ptrINSt7__cxx1112basic_stringIcSt11char_traitsIcESaIcEEESt14default_deleteIS5_EE11get_deleterEv
FNDA:0,_ZNSt10unique_ptrINSt7__cxx1112basic_stringIcSt11char_traitsIcESaIcEEESt14default_deleteIS5_EE11get_deleterEv
FN:365,_ZNSt10unique_ptrINSt7__cxx1118basic_stringstreamIcSt11char_traitsIcESaIcEEESt14default_deleteIS5_EE11get_deleterEv
FNDA:0,_ZNSt10unique_ptrINSt7__cxx1118basic_stringstreamIcSt11char_traitsIcESaIcEEESt14default_deleteIS5_EE11get_deleterEv
DA:75,0
DA:81,0
DA:82,0
DA:75,0
DA:81,0
DA:82,0
DA:153,24
DA:153,0
DA:154,0
DA:155,0
DA:155,0
DA:286,24
DA:290,24
DA:291,24
DA:292,0
DA:293,24
DA:294,24
DA:286,0
DA:290,0
DA:291,0
DA:292,0
DA:293,0
DA:294,0
DA:352,0
DA:355,0
DA:360,0
DA:361,0
DA:365,0
DA:366,0
DA:365,0
DA:366,0
end_of_record
SF:/usr/include/c++/9/bits/move.h
FN:99,_ZSt4moveIRPNSt7__cxx1112basic_stringIcSt11char_traitsIcESaIcEEEEONSt16remove_referenceIT_E4typeEOS9_
FNDA:0,_ZSt4moveIRPNSt7__cxx1112basic_stringIcSt11char_traitsIcESaIcEEEEONSt16remove_referenceIT_E4typeEOS9_
FN:99,_ZSt4moveIRPNSt7__cxx1118basic_stringstreamIcSt11char_traitsIcESaIcEEEEONSt16remove_referenceIT_E4typeEOS9_
FNDA:0,_ZSt4moveIRPNSt7__cxx1118basic_stringstreamIcSt11char_traitsIcESaIcEEEEONSt16remove_referenceIT_E4typeEOS9_
FN:99,_ZSt4moveIRSaIcEEONSt16remove_referenceIT_E4typeEOS3_
FNDA:0,_ZSt4moveIRSaIcEEONSt16remove_referenceIT_E4typeEOS3_
DA:99,0
DA:100,0
DA:99,0
DA:100,0
DA:99,0
DA:100,0
end_of_record
SF:/usr/include/c++/9/cmath
FN:272,_ZSt5floorIiEN9__gnu_cxx11__enable_ifIXsrSt12__is_integerIT_E7__valueEdE6__typeES3_
FNDA:48,_ZSt5floorIiEN9__gnu_cxx11__enable_ifIXsrSt12__is_integerIT_E7__valueEdE6__typeES3_
DA:272,48
DA:273,48
end_of_record
SF:/home/ishansrt/stuff/aes/tests/test.cpp
FN:7,_ZN27StdTestCase1_KeyLen128_TestC2Ev
FNDA:1,_ZN27StdTestCase1_KeyLen128_TestC2Ev
FN:7,_ZN27StdTestCase1_KeyLen128_Test8TestBodyEv
FNDA:1,_ZN27StdTestCase1_KeyLen128_Test8TestBodyEv
FN:31,_ZN27StdTestCase1_KeyLen192_TestC2Ev
FNDA:1,_ZN27StdTestCase1_KeyLen192_TestC2Ev
FN:31,_ZN27StdTestCase1_KeyLen192_Test8TestBodyEv
FNDA:1,_ZN27StdTestCase1_KeyLen192_Test8TestBodyEv
FN:56,_ZN27StdTestCase1_KeyLen256_TestC2Ev
FNDA:1,_ZN27StdTestCase1_KeyLen256_TestC2Ev
FN:56,_ZN27StdTestCase1_KeyLen256_Test8TestBodyEv
FNDA:1,_ZN27StdTestCase1_KeyLen256_Test8TestBodyEv
FN:84,_ZN57WrongTestCaseStdTestCase1AesWorkingWith128_KeyLen256_TestC2Ev
FNDA:1,_ZN57WrongTestCaseStdTestCase1AesWorkingWith128_KeyLen256_TestC2Ev
FN:84,_ZN57WrongTestCaseStdTestCase1AesWorkingWith128_KeyLen256_Test8TestBodyEv
FNDA:1,_ZN57WrongTestCaseStdTestCase1AesWorkingWith128_KeyLen256_Test8TestBodyEv
FN:113,_ZN27StdTestCase2_KeyLen128_TestC2Ev
FNDA:1,_ZN27StdTestCase2_KeyLen128_TestC2Ev
FN:113,_ZN27StdTestCase2_KeyLen128_Test8TestBodyEv
FNDA:1,_ZN27StdTestCase2_KeyLen128_Test8TestBodyEv
FN:138,_ZN27StdTestCase2_KeyLen192_TestC2Ev
FNDA:1,_ZN27StdTestCase2_KeyLen192_TestC2Ev
FN:138,_ZN27StdTestCase2_KeyLen192_Test8TestBodyEv
FNDA:1,_ZN27StdTestCase2_KeyLen192_Test8TestBodyEv
FN:163,_ZN27StdTestCase2_KeyLen256_Test8TestBodyEv
FNDA:1,_ZN27StdTestCase2_KeyLen256_Test8TestBodyEv
FN:163,_ZN27StdTestCase2_KeyLen256_TestC2Ev
FNDA:1,_ZN27StdTestCase2_KeyLen256_TestC2Ev
FN:190,_ZN25TestECB_EncryptTest1_TestC2Ev
FNDA:1,_ZN25TestECB_EncryptTest1_TestC2Ev
FN:190,_ZN25TestECB_EncryptTest1_Test8TestBodyEv
FNDA:1,_ZN25TestECB_EncryptTest1_Test8TestBodyEv
FN:201,_ZN25TestECB_DecryptTest1_TestC2Ev
FNDA:1,_ZN25TestECB_DecryptTest1_TestC2Ev
FN:201,_ZN25TestECB_DecryptTest1_Test8TestBodyEv
FNDA:1,_ZN25TestECB_DecryptTest1_Test8TestBodyEv
FN:212,_ZN18TestCBC_Test1_TestC2Ev
FNDA:1,_ZN18TestCBC_Test1_TestC2Ev
FN:212,_ZN18TestCBC_Test1_Test8TestBodyEv
FNDA:1,_ZN18TestCBC_Test1_Test8TestBodyEv
FN:241,_ZN18TestOFB_Test1_TestC2Ev
FNDA:1,_ZN18TestOFB_Test1_TestC2Ev
FN:241,_ZN18TestOFB_Test1_Test8TestBodyEv
FNDA:1,_ZN18TestOFB_Test1_Test8TestBodyEv
FN:270,_ZN46TestOFB_TestMessagenotmultipleofblocksize_TestC2Ev
FNDA:1,_ZN46TestOFB_TestMessagenotmultipleofblocksize_TestC2Ev
FN:270,_ZN46TestOFB_TestMessagenotmultipleofblocksize_Test8TestBodyEv
FNDA:1,_ZN46TestOFB_TestMessagenotmultipleofblocksize_Test8TestBodyEv
FN:299,_ZN18TestCTR_Test1_TestC2Ev
FNDA:1,_ZN18TestCTR_Test1_TestC2Ev
FN:299,_ZN18TestCTR_Test1_Test8TestBodyEv
FNDA:1,_ZN18TestCTR_Test1_Test8TestBodyEv
FN:324,main
FNDA:1,main
DA:7,1
DA:9,1
DA:10,1
DA:11,1
DA:14,1
DA:15,5
DA:17,4
DA:20,1
DA:22,1
DA:23,1
DA:24,2
DA:26,1
DA:27,1
DA:28,2
DA:7,1
DA:31,1
DA:33,1
DA:34,1
DA:35,1
DA:39,1
DA:40,5
DA:42,4
DA:45,1
DA:47,1
DA:48,1
DA:49,2
DA:51,1
DA:52,1
DA:53,3
DA:31,1
DA:56,1
DA:58,1
DA:59,1
DA:60,1
DA:64,1
DA:65,5
DA:67,4
DA:70,1
DA:72,1
DA:73,1
DA:74,2
DA:76,1
DA:77,1
DA:78,3
DA:56,1
DA:84,1
DA:86,1
DA:87,1
DA:88,1
DA:92,1
DA:93,5
DA:95,4
DA:98,1
DA:100,1
DA:101,1
DA:102,2
DA:104,1
DA:105,1
DA:106,3
DA:84,1
DA:113,1
DA:115,1
DA:116,1
DA:117,1
DA:121,1
DA:122,5
DA:124,4
DA:127,1
DA:129,1
DA:130,1
DA:131,2
DA:133,1
DA:134,1
DA:135,3
DA:113,1
DA:138,1
DA:140,1
DA:141,1
DA:142,1
DA:146,1
DA:147,5
DA:149,4
DA:152,1
DA:154,1
DA:155,1
DA:156,2
DA:158,1
DA:159,1
DA:160,3
DA:138,1
DA:163,1
DA:165,1
DA:166,1
DA:167,1
DA:169,1
DA:173,1
DA:174,5
DA:176,4
DA:179,1
DA:181,1
DA:182,1
DA:183,2
DA:185,1
DA:186,1
DA:187,3
DA:163,1
DA:190,1
DA:192,1
DA:193,1
DA:195,1
DA:196,1
DA:197,1
DA:198,2
DA:190,1
DA:201,1
DA:203,1
DA:204,1
DA:205,1
DA:207,1
DA:208,1
DA:209,2
DA:201,1
DA:212,1
DA:214,1
DA:215,1
DA:220,1
DA:221,1
DA:226,1
DA:227,1
DA:229,2
DA:231,1
DA:236,1
DA:237,2
DA:212,1
DA:241,1
DA:243,1
DA:245,1
DA:250,1
DA:251,1
DA:255,1
DA:256,1
DA:258,2
DA:260,1
DA:265,1
DA:266,2
DA:241,1
DA:270,1
DA:272,1
DA:274,1
DA:279,1
DA:280,1
DA:284,1
DA:285,1
DA:287,2
DA:289,1
DA:294,1
DA:295,2
DA:270,1
DA:299,1
DA:301,1
DA:302,1
DA:303,1
DA:307,1
DA:308,1
DA:313,1
DA:314,2
DA:316,1
DA:320,1
DA:321,2
DA:299,1
DA:324,1
DA:326,1
DA:327,1
end_of_record
SF:/usr/include/c++/9/ext/alloc_traits.h
FN:97,_ZN9__gnu_cxx14__alloc_traitsISaIcEcE17_S_select_on_copyERKS1_
FNDA:0,_ZN9__gnu_cxx14__alloc_traitsISaIcEcE17_S_select_on_copyERKS1_
DA:97,0
DA:98,0
end_of_record
SF:/usr/include/c++/9/bits/basic_string.tcc
FN:206,_ZNSt7__cxx1112basic_stringIcSt11char_traitsIcESaIcEE12_M_constructIPcEEvT_S7_St20forward_iterator_tag
FNDA:0,_ZNSt7__cxx1112basic_stringIcSt11char_traitsIcESaIcEE12_M_constructIPcEEvT_S7_St20forward_iterator_tag
FN:206,_ZNSt7__cxx1112basic_stringIcSt11char_traitsIcESaIcEE12_M_constructIPKcEEvT_S8_St20forward_iterator_tag
FNDA:0,_ZNSt7__cxx1112basic_stringIcSt11char_traitsIcESaIcEE12_M_constructIPKcEEvT_S8_St20forward_iterator_tag
DA:206,0
DA:211,0
DA:212,0
DA:215,0
DA:217,0
DA:219,0
DA:220,0
DA:225,0
DA:226,0
DA:228,0
DA:229,0
DA:232,0
DA:233,0
DA:206,0
DA:211,0
DA:212,0
DA:215,0
DA:217,0
DA:219,0
DA:220,0
DA:225,0
DA:226,0
DA:228,0
DA:229,0
DA:232,0
DA:233,0
end_of_record
SF:/usr/include/c++/9/iostream
end_of_record
SF:/usr/include/c++/9/bits/basic_string.h
FN:243,_ZNSt7__cxx1112basic_stringIcSt11char_traitsIcESaIcEE16_M_construct_auxIPcEEvT_S7_St12__false_type
FNDA:0,_ZNSt7__cxx1112basic_stringIcSt11char_traitsIcESaIcEE16_M_construct_auxIPcEEvT_S7_St12__false_type
FN:243,_ZNSt7__cxx1112basic_stringIcSt11char_traitsIcESaIcEE16_M_construct_auxIPKcEEvT_S8_St12__false_type
FNDA:0,_ZNSt7__cxx1112basic_stringIcSt11char_traitsIcESaIcEE16_M_construct_auxIPKcEEvT_S8_St12__false_type
FN:263,_ZNSt7__cxx1112basic_stringIcSt11char_traitsIcESaIcEE12_M_constructIPcEEvT_S7_
FNDA:0,_ZNSt7__cxx1112basic_stringIcSt11char_traitsIcESaIcEE12_M_constructIPcEEvT_S7_
FN:263,_ZNSt7__cxx1112basic_stringIcSt11char_traitsIcESaIcEE12_M_constructIPKcEEvT_S8_
FNDA:0,_ZNSt7__cxx1112basic_stringIcSt11char_traitsIcESaIcEE12_M_constructIPKcEEvT_S8_
FN:6149,_ZSteqIcEN9__gnu_cxx11__enable_ifIXsrSt9__is_charIT_E7__valueEbE6__typeERKNSt7__cxx1112basic_stringIS3_St11char_traitsIS3_ESaIS3_EEESE_
FNDA:24,_ZSteqIcEN9__gnu_cxx11__enable_ifIXsrSt9__is_charIT_E7__valueEbE6__typeERKNSt7__cxx1112basic_stringIS3_St11char_traitsIS3_ESaIS3_EEESE_
DA:243,0
DA:247,0
DA:248,0
DA:243,0
DA:247,0
DA:248,0
DA:263,0
DA:266,0
DA:267,0
DA:263,0
DA:266,0
DA:267,0
DA:6149,24
DA:6151,24
DA:6152,24
DA:6153,24
end_of_record
SF:/usr/include/gtest/internal/gtest-port.h
FN:957,_ZN7testing8internal8GTestLog9GetStreamEv
FNDA:0,_ZN7testing8internal8GTestLog9GetStreamEv
DA:957,0
end_of_record
SF:/usr/include/c++/9/bits/stl_iterator_base_funcs.h
FN:98,_ZSt10__distanceIPcENSt15iterator_traitsIT_E15difference_typeES2_S2_St26random_access_iterator_tag
FNDA:0,_ZSt10__distanceIPcENSt15iterator_traitsIT_E15difference_typeES2_S2_St26random_access_iterator_tag
FN:98,_ZSt10__distanceIPKcENSt15iterator_traitsIT_E15difference_typeES3_S3_St26random_access_iterator_tag
FNDA:0,_ZSt10__distanceIPKcENSt15iterator_traitsIT_E15difference_typeES3_S3_St26random_access_iterator_tag
FN:138,_ZSt8distanceIPcENSt15iterator_traitsIT_E15difference_typeES2_S2_
FNDA:0,_ZSt8distanceIPcENSt15iterator_traitsIT_E15difference_typeES2_S2_
FN:138,_ZSt8distanceIPKcENSt15iterator_traitsIT_E15difference_typeES3_S3_
FNDA:0,_ZSt8distanceIPKcENSt15iterator_traitsIT_E15difference_typeES3_S3_
DA:98,0
DA:104,0
DA:98,0
DA:104,0
DA:138,0
DA:141,0
DA:142,0
DA:138,0
DA:141,0
DA:142,0
end_of_record
SF:/usr/include/gtest/internal/gtest-internal.h
FN:442,_ZN7testing8internal15TestFactoryBaseD2Ev
FNDA:13,_ZN7testing8internal15TestFactoryBaseD2Ev
FN:442,_ZN7testing8internal15TestFactoryBaseD0Ev
FNDA:0,_ZN7testing8internal15TestFactoryBaseD0Ev
FN:449,_ZN7testing8internal15TestFactoryBaseC2Ev
FNDA:13,_ZN7testing8internal15TestFactoryBaseC2Ev
FN:460,_ZN7testing8internal15TestFactoryImplI18TestOFB_Test1_TestE10CreateTestEv
FNDA:1,_ZN7testing8internal15TestFactoryImplI18TestOFB_Test1_TestE10CreateTestEv
FN:460,_ZN7testing8internal15TestFactoryImplI18TestCTR_Test1_TestE10CreateTestEv
FNDA:1,_ZN7testing8internal15TestFactoryImplI18TestCTR_Test1_TestE10CreateTestEv
FN:460,_ZN7testing8internal15TestFactoryImplI46TestOFB_TestMessagenotmultipleofblocksize_TestE10CreateTestEv
FNDA:1,_ZN7testing8internal15TestFactoryImplI46TestOFB_TestMessagenotmultipleofblocksize_TestE10CreateTestEv
FN:460,_ZN7testing8internal15TestFactoryImplI27StdTestCase1_KeyLen128_TestE10CreateTestEv
FNDA:1,_ZN7testing8internal15TestFactoryImplI27StdTestCase1_KeyLen128_TestE10CreateTestEv
FN:460,_ZN7testing8internal15TestFactoryImplI18TestCBC_Test1_TestE10CreateTestEv
FNDA:1,_ZN7testing8internal15TestFactoryImplI18TestCBC_Test1_TestE10CreateTestEv
FN:460,_ZN7testing8internal15TestFactoryImplI25TestECB_DecryptTest1_TestE10CreateTestEv
FNDA:1,_ZN7testing8internal15TestFactoryImplI25TestECB_DecryptTest1_TestE10CreateTestEv
FN:460,_ZN7testing8internal15TestFactoryImplI25TestECB_EncryptTest1_TestE10CreateTestEv
FNDA:1,_ZN7testing8internal15TestFactoryImplI25TestECB_EncryptTest1_TestE10CreateTestEv
FN:460,_ZN7testing8internal15TestFactoryImplI27StdTestCase2_KeyLen256_TestE10CreateTestEv
FNDA:1,_ZN7testing8internal15TestFactoryImplI27StdTestCase2_KeyLen256_TestE10CreateTestEv
FN:460,_ZN7testing8internal15TestFactoryImplI27StdTestCase2_KeyLen192_TestE10CreateTestEv
FNDA:1,_ZN7testing8internal15TestFactoryImplI27StdTestCase2_KeyLen192_TestE10CreateTestEv
FN:460,_ZN7testing8internal15TestFactoryImplI27StdTestCase2_KeyLen128_TestE10CreateTestEv
FNDA:1,_ZN7testing8internal15TestFactoryImplI27StdTestCase2_KeyLen128_TestE10CreateTestEv
FN:460,_ZN7testing8internal15TestFactoryImplI57WrongTestCaseStdTestCase1AesWorkingWith128_KeyLen256_TestE10CreateTestEv
FNDA:1,_ZN7testing8internal15TestFactoryImplI57WrongTestCaseStdTestCase1AesWorkingWith128_KeyLen256_TestE10CreateTestEv
FN:460,_ZN7testing8internal15TestFactoryImplI27StdTestCase1_KeyLen256_TestE10CreateTestEv
FNDA:1,_ZN7testing8internal15TestFactoryImplI27StdTestCase1_KeyLen256_TestE10CreateTestEv
FN:460,_ZN7testing8internal15TestFactoryImplI27StdTestCase1_KeyLen192_TestE10CreateTestEv
FNDA:1,_ZN7testing8internal15TestFactoryImplI27StdTestCase1_KeyLen192_TestE10CreateTestEv
FN:481,_ZN7testing8internal12CodeLocationC2ERKNSt7__cxx1112basic_stringIcSt11char_traitsIcESaIcEEEi
FNDA:13,_ZN7testing8internal12CodeLocationC2ERKNSt7__cxx1112basic_stringIcSt11char_traitsIcESaIcEEEi
FN:494,_ZN7testing8internal19GetNotDefaultOrNullEPFvvES2_
FNDA:52,_ZN7testing8internal19GetNotDefaultOrNullEPFvvES2_
FN:509,_ZN7testing8internal16SuiteApiResolverINS_4TestEE19GetSetUpCaseOrSuiteEPKci
FNDA:13,_ZN7testing8internal16SuiteApiResolverINS_4TestEE19GetSetUpCaseOrSuiteEPKci
FN:524,_ZN7testing8internal16SuiteApiResolverINS_4TestEE22GetTearDownCaseOrSuiteEPKci
FNDA:13,_ZN7testing8internal16SuiteApiResolverINS_4TestEE22GetTearDownCaseOrSuiteEPKci
DA:442,0
DA:442,13
DA:449,13
DA:460,1
DA:460,1
DA:460,1
DA:460,1
DA:460,1
DA:460,1
DA:460,1
DA:460,1
DA:460,1
DA:460,1
DA:460,1
DA:460,1
DA:460,1
DA:481,13
DA:482,13
DA:494,52
DA:496,52
DA:509,13
DA:512,13
DA:514,13
DA:516,13
DA:519,0
DA:521,13
DA:524,13
DA:527,13
DA:529,13
DA:531,13
DA:534,0
DA:536,13
end_of_record
SF:/usr/include/c++/9/bits/alloc_traits.h
FN:514,_ZNSt16allocator_traitsISaIcEE37select_on_container_copy_constructionERKS0_
FNDA:0,_ZNSt16allocator_traitsISaIcEE37select_on_container_copy_constructionERKS0_
DA:514,0
DA:515,0
end_of_record
SF:/usr/include/gtest/gtest.h
FN:312,_ZNK7testing15AssertionResultcvbEv
FNDA:24,_ZNK7testing15AssertionResultcvbEv
FN:321,_ZNK7testing15AssertionResult7messageEv
FNDA:0,_ZNK7testing15AssertionResult7messageEv
FN:325,_ZNK7testing15AssertionResult15failure_messageEv
FNDA:0,_ZNK7testing15AssertionResult15failure_messageEv
FN:417,_ZN7testing4Test14SetUpTestSuiteEv
FNDA:0,_ZN7testing4Test14SetUpTestSuiteEv
FN:427,_ZN7testing4Test17TearDownTestSuiteEv
FNDA:0,_ZN7testing4Test17TearDownTestSuiteEv
FN:431,_ZN7testing4Test16TearDownTestCaseEv
FNDA:0,_ZN7testing4Test16TearDownTestCaseEv
FN:432,_ZN7testing4Test13SetUpTestCaseEv
FNDA:0,_ZN7testing4Test13SetUpTestCaseEv
FN:513,_ZN7testing4Test5SetupEv
FNDA:0,_ZN7testing4Test5SetupEv
FN:1504,_ZN7testing8internal18CmpHelperEQFailureINSt7__cxx1112basic_stringIcSt11char_traitsIcESaIcEEES7_EENS_15AssertionResultEPKcSA_RKT_RKT0_
FNDA:0,_ZN7testing8internal18CmpHelperEQFailureINSt7__cxx1112basic_stringIcSt11char_traitsIcESaIcEEES7_EENS_15AssertionResultEPKcSA_RKT_RKT0_
FN:1523,_ZN7testing8internal11CmpHelperEQINSt7__cxx1112basic_stringIcSt11char_traitsIcESaIcEEES7_EENS_15AssertionResultEPKcSA_RKT_RKT0_
FNDA:24,_ZN7testing8internal11CmpHelperEQINSt7__cxx1112basic_stringIcSt11char_traitsIcESaIcEEES7_EENS_15AssertionResultEPKcSA_RKT_RKT0_
FN:1551,_ZN7testing8internal8EqHelper7CompareINSt7__cxx1112basic_stringIcSt11char_traitsIcESaIcEEES8_LPv0EEENS_15AssertionResultEPKcSC_RKT_RKT0_
FNDA:24,_ZN7testing8internal8EqHelper7CompareINSt7__cxx1112basic_stringIcSt11char_traitsIcESaIcEEES8_LPv0EEENS_15AssertionResultEPKcSC_RKT_RKT0_
FN:2472,_Z13RUN_ALL_TESTSv
FNDA:1,_Z13RUN_ALL_TESTSv
DA:312,24
DA:321,0
DA:322,0
DA:325,0
DA:417,0
DA:427,0
DA:431,0
DA:432,0
DA:513,0
DA:1504,0
DA:1511,0
DA:1523,24
DA:1527,24
DA:1528,24
DA:1531,0
DA:1551,24
DA:1554,24
DA:2472,1
DA:2473,1
end_of_record
SF:/usr/include/gtest/gtest-printers.h
FN:313,_ZN7testing8internal19FormatForComparisonINSt7__cxx1112basic_stringIcSt11char_traitsIcESaIcEEES7_E6FormatERKS7_
FNDA:0,_ZN7testing8internal19FormatForComparisonINSt7__cxx1112basic_stringIcSt11char_traitsIcESaIcEEES7_E6FormatERKS7_
FN:377,_ZN7testing8internal33FormatForComparisonFailureMessageINSt7__cxx1112basic_stringIcSt11char_traitsIcESaIcEEES7_EES7_RKT_RKT0_
FNDA:0,_ZN7testing8internal33FormatForComparisonFailureMessageINSt7__cxx1112basic_stringIcSt11char_traitsIcESaIcEEES7_EES7_RKT_RKT0_
FN:594,_ZN7testing8internal7PrintToERKNSt7__cxx1112basic_stringIcSt11char_traitsIcESaIcEEEPSo
FNDA:0,_ZN7testing8internal7PrintToERKNSt7__cxx1112basic_stringIcSt11char_traitsIcESaIcEEEPSo
FN:670,_ZN7testing8internal16UniversalPrinterINSt7__cxx1112basic_stringIcSt11char_traitsIcESaIcEEEE5PrintERKS7_PSo
FNDA:0,_ZN7testing8internal16UniversalPrinterINSt7__cxx1112basic_stringIcSt11char_traitsIcESaIcEEEE5PrintERKS7_PSo
FN:796,_ZN7testing8internal21UniversalTersePrinterINSt7__cxx1112basic_stringIcSt11char_traitsIcESaIcEEEE5PrintERKS7_PSo
FNDA:0,_ZN7testing8internal21UniversalTersePrinterINSt7__cxx1112basic_stringIcSt11char_traitsIcESaIcEEEE5PrintERKS7_PSo
FN:865,_ZN7testing8internal14UniversalPrintINSt7__cxx1112basic_stringIcSt11char_traitsIcESaIcEEEEEvRKT_PSo
FNDA:0,_ZN7testing8internal14UniversalPrintINSt7__cxx1112basic_stringIcSt11char_traitsIcESaIcEEEEEvRKT_PSo
FN:915,_ZN7testing13PrintToStringINSt7__cxx1112basic_stringIcSt11char_traitsIcESaIcEEEEES6_RKT_
FNDA:0,_ZN7testing13PrintToStringINSt7__cxx1112basic_stringIcSt11char_traitsIcESaIcEEEEES6_RKT_
DA:313,0
DA:314,0
DA:377,0
DA:379,0
DA:594,0
DA:595,0
DA:596,0
DA:670,0
DA:679,0
DA:680,0
DA:796,0
DA:797,0
DA:798,0
DA:865,0
DA:869,0
DA:870,0
DA:915,0
DA:916,0
DA:917,0
DA:918,0
end_of_record
SF:/usr/include/c++/9/bits/stl_iterator_base_types.h
FN:205,_ZSt19__iterator_categoryIPcENSt15iterator_traitsIT_E17iterator_categoryERKS2_
FNDA:0,_ZSt19__iterator_categoryIPcENSt15iterator_traitsIT_E17iterator_categoryERKS2_
FN:205,_ZSt19__iterator_categoryIPKcENSt15iterator_traitsIT_E17iterator_categoryERKS3_
FNDA:0,_ZSt19__iterator_categoryIPKcENSt15iterator_traitsIT_E17iterator_categoryERKS3_
DA:205,0
DA:206,0
DA:205,0
DA:206,0
end_of_record
SF:/usr/include/c++/9/tuple
FN:113,_ZNSt10_Head_baseILm1ESt14default_deleteINSt7__cxx1118basic_stringstreamIcSt11char_traitsIcESaIcEEEELb1EE7_M_headERS8_
FNDA:0,_ZNSt10_Head_baseILm1ESt14default_deleteINSt7__cxx1118basic_stringstreamIcSt11char_traitsIcESaIcEEEELb1EE7_M_headERS8_
FN:113,_ZNSt10_Head_baseILm1ESt14default_deleteINSt7__cxx1112basic_stringIcSt11char_traitsIcESaIcEEEELb1EE7_M_headERS8_
FNDA:0,_ZNSt10_Head_baseILm1ESt14default_deleteINSt7__cxx1112basic_stringIcSt11char_traitsIcESaIcEEEELb1EE7_M_headERS8_
FN:160,_ZNSt10_Head_baseILm0EPNSt7__cxx1112basic_stringIcSt11char_traitsIcESaIcEEELb0EE7_M_headERS7_
FNDA:24,_ZNSt10_Head_baseILm0EPNSt7__cxx1112basic_stringIcSt11char_traitsIcESaIcEEELb0EE7_M_headERS7_
FN:160,_ZNSt10_Head_baseILm0EPNSt7__cxx1118basic_stringstreamIcSt11char_traitsIcESaIcEEELb0EE7_M_headERS7_
FNDA:0,_ZNSt10_Head_baseILm0EPNSt7__cxx1118basic_stringstreamIcSt11char_traitsIcESaIcEEELb0EE7_M_headERS7_
FN:163,_ZNSt10_Head_baseILm0EPNSt7__cxx1112basic_stringIcSt11char_traitsIcESaIcEEELb0EE7_M_headERKS7_
FNDA:0,_ZNSt10_Head_baseILm0EPNSt7__cxx1112basic_stringIcSt11char_traitsIcESaIcEEELb0EE7_M_headERKS7_
FN:195,_ZNSt11_Tuple_implILm0EJPNSt7__cxx1112basic_stringIcSt11char_traitsIcESaIcEEESt14default_deleteIS5_EEE7_M_headERS9_
FNDA:24,_ZNSt11_Tuple_implILm0EJPNSt7__cxx1112basic_stringIcSt11char_traitsIcESaIcEEESt14default_deleteIS5_EEE7_M_headERS9_
FN:195,_ZNSt11_Tuple_implILm0EJPNSt7__cxx1118basic_stringstreamIcSt11char_traitsIcESaIcEEESt14default_deleteIS5_EEE7_M_headERS9_
FNDA:0,_ZNSt11_Tuple_implILm0EJPNSt7__cxx1118basic_stringstreamIcSt11char_traitsIcESaIcEEESt14default_deleteIS5_EEE7_M_headERS9_
FN:198,_ZNSt11_Tuple_implILm0EJPNSt7__cxx1112basic_stringIcSt11char_traitsIcESaIcEEESt14default_deleteIS5_EEE7_M_headERKS9_
FNDA:0,_ZNSt11_Tuple_implILm0EJPNSt7__cxx1112basic_stringIcSt11char_traitsIcESaIcEEESt14default_deleteIS5_EEE7_M_headERKS9_
FN:334,_ZNSt11_Tuple_implILm1EJSt14default_deleteINSt7__cxx1112basic_stringIcSt11char_traitsIcESaIcEEEEEE7_M_headERS8_
FNDA:0,_ZNSt11_Tuple_implILm1EJSt14default_deleteINSt7__cxx1112basic_stringIcSt11char_traitsIcESaIcEEEEEE7_M_headERS8_
FN:334,_ZNSt11_Tuple_implILm1EJSt14default_deleteINSt7__cxx1118basic_stringstreamIcSt11char_traitsIcESaIcEEEEEE7_M_headERS8_
FNDA:0,_ZNSt11_Tuple_implILm1EJSt14default_deleteINSt7__cxx1118basic_stringstreamIcSt11char_traitsIcESaIcEEEEEE7_M_headERS8_
FN:1309,_ZSt12__get_helperILm1ESt14default_deleteINSt7__cxx1118basic_stringstreamIcSt11char_traitsIcESaIcEEEEJEERT0_RSt11_Tuple_implIXT_EJS8_DpT1_EE
FNDA:0,_ZSt12__get_helperILm1ESt14default_deleteINSt7__cxx1118basic_stringstreamIcSt11char_traitsIcESaIcEEEEJEERT0_RSt11_Tuple_implIXT_EJS8_DpT1_EE
FN:1309,_ZSt12__get_helperILm0EPNSt7__cxx1118basic_stringstreamIcSt11char_traitsIcESaIcEEEJSt14default_deleteIS5_EEERT0_RSt11_Tuple_implIXT_EJS9_DpT1_EE
FNDA:0,_ZSt12__get_helperILm0EPNSt7__cxx1118basic_stringstreamIcSt11char_traitsIcESaIcEEEJSt14default_deleteIS5_EEERT0_RSt11_Tuple_implIXT_EJS9_DpT1_EE
FN:1309,_ZSt12__get_helperILm0EPNSt7__cxx1112basic_stringIcSt11char_traitsIcESaIcEEEJSt14default_deleteIS5_EEERT0_RSt11_Tuple_implIXT_EJS9_DpT1_EE
FNDA:24,_ZSt12__get_helperILm0EPNSt7__cxx1112basic_stringIcSt11char_traitsIcESaIcEEEJSt14default_deleteIS5_EEERT0_RSt11_Tuple_implIXT_EJS9_DpT1_EE
FN:1309,_ZSt12__get_helperILm1ESt14default_deleteINSt7__cxx1112basic_stringIcSt11char_traitsIcESaIcEEEEJEERT0_RSt11_Tuple_implIXT_EJS8_DpT1_EE
FNDA:0,_ZSt12__get_helperILm1ESt14default_deleteINSt7__cxx1112basic_stringIcSt11char_traitsIcESaIcEEEEJEERT0_RSt11_Tuple_implIXT_EJS8_DpT1_EE
FN:1314,_ZSt12__get_helperILm0EPNSt7__cxx1112basic_stringIcSt11char_traitsIcESaIcEEEJSt14default_deleteIS5_EEERKT0_RKSt11_Tuple_implIXT_EJS9_DpT1_EE
FNDA:0,_ZSt12__get_helperILm0EPNSt7__cxx1112basic_stringIcSt11char_traitsIcESaIcEEEJSt14default_deleteIS5_EEERKT0_RKSt11_Tuple_implIXT_EJS9_DpT1_EE
FN:1320,_ZSt3getILm1EJPNSt7__cxx1112basic_stringIcSt11char_traitsIcESaIcEEESt14default_deleteIS5_EEERNSt13tuple_elementIXT_ESt5tupleIJDpT0_EEE4typeERSD_
FNDA:0,_ZSt3getILm1EJPNSt7__cxx1112basic_stringIcSt11char_traitsIcESaIcEEESt14default_deleteIS5_EEERNSt13tuple_elementIXT_ESt5tupleIJDpT0_EEE4typeERSD_
FN:1320,_ZSt3getILm1EJPNSt7__cxx1118basic_stringstreamIcSt11char_traitsIcESaIcEEESt14default_deleteIS5_EEERNSt13tuple_elementIXT_ESt5tupleIJDpT0_EEE4typeERSD_
FNDA:0,_ZSt3getILm1EJPNSt7__cxx1118basic_stringstreamIcSt11char_traitsIcESaIcEEESt14default_deleteIS5_EEERNSt13tuple_elementIXT_ESt5tupleIJDpT0_EEE4typeERSD_
FN:1320,_ZSt3getILm0EJPNSt7__cxx1112basic_stringIcSt11char_traitsIcESaIcEEESt14default_deleteIS5_EEERNSt13tuple_elementIXT_ESt5tupleIJDpT0_EEE4typeERSD_
FNDA:24,_ZSt3getILm0EJPNSt7__cxx1112basic_stringIcSt11char_traitsIcESaIcEEESt14default_deleteIS5_EEERNSt13tuple_elementIXT_ESt5tupleIJDpT0_EEE4typeERSD_
FN:1320,_ZSt3getILm0EJPNSt7__cxx1118basic_stringstreamIcSt11char_traitsIcESaIcEEESt14default_deleteIS5_EEERNSt13tuple_elementIXT_ESt5tupleIJDpT0_EEE4typeERSD_
FNDA:0,_ZSt3getILm0EJPNSt7__cxx1118basic_stringstreamIcSt11char_traitsIcESaIcEEESt14default_deleteIS5_EEERNSt13tuple_elementIXT_ESt5tupleIJDpT0_EEE4typeERSD_
FN:1326,_ZSt3getILm0EJPNSt7__cxx1112basic_stringIcSt11char_traitsIcESaIcEEESt14default_deleteIS5_EEERKNSt13tuple_elementIXT_ESt5tupleIJDpT0_EEE4typeERKSD_
FNDA:0,_ZSt3getILm0EJPNSt7__cxx1112basic_stringIcSt11char_traitsIcESaIcEEESt14default_deleteIS5_EEERKNSt13tuple_elementIXT_ESt5tupleIJDpT0_EEE4typeERKSD_
DA:113,0
DA:113,0
DA:160,24
DA:160,0
DA:163,0
DA:195,24
DA:195,0
DA:198,0
DA:334,0
DA:334,0
DA:1309,0
DA:1310,0
DA:1309,0
DA:1310,0
DA:1309,24
DA:1310,24
DA:1309,0
DA:1310,0
DA:1314,0
DA:1315,0
DA:1320,0
DA:1321,0
DA:1320,0
DA:1321,0
DA:1320,24
DA:1321,24
DA:1320,0
DA:1321,0
DA:1326,0
DA:1327,0
end_of_record
SF:/home/ishansrt/stuff/aes/src/aes.cpp
FN:18,_ZN3AesC2Ei
FNDA:13,_ZN3AesC2Ei
FN:40,_ZN3Aes5getNkEv
FNDA:6,_ZN3Aes5getNkEv
FN:45,_ZN3Aes5getNrEv
FNDA:28,_ZN3Aes5getNrEv
FN:50,_ZN3Aes5getNbEv
FNDA:34,_ZN3Aes5getNbEv
FN:63,_ZN3Aes9ShiftRowsEPPh
FNDA:402,_ZN3Aes9ShiftRowsEPPh
FN:107,_ZN3Aes12InvShiftRowsEPPh
FNDA:152,_ZN3Aes12InvShiftRowsEPPh
FN:155,_ZN3Aes8SubBytesEPPh
FNDA:402,_ZN3Aes8SubBytesEPPh
FN:181,_ZN3Aes11InvSubBytesEPPh
FNDA:152,_ZN3Aes11InvSubBytesEPPh
FN:207,_ZN3Aes10MixColumnsEPPh
FNDA:363,_ZN3Aes10MixColumnsEPPh
FN:278,_ZN3Aes13InvMixColumnsEPPh
FNDA:138,_ZN3Aes13InvMixColumnsEPPh
FN:340,_ZN3Aes11AddRoundKeyEPPhS1_i
FNDA:607,_ZN3Aes11AddRoundKeyEPPhS1_i
FN:360,_ZN3Aes5xtimeEh
FNDA:683,_ZN3Aes5xtimeEh
FN:381,_ZN3Aes4RconEPhi
FNDA:160,_ZN3Aes4RconEPhi
FN:404,_ZN3Aes7SubWordEPh
FNDA:172,_ZN3Aes7SubWordEPh
FN:426,_ZN3Aes7RotWordEPh
FNDA:160,_ZN3Aes7RotWordEPh
FN:448,_ZN3Aes12KeyExpansionEPhPS0_
FNDA:17,_ZN3Aes12KeyExpansionEPhPS0_
FN:504,_ZN3Aes12blockToStateEPh
FNDA:53,_ZN3Aes12blockToStateEPh
FN:528,_ZN3Aes12stateToBlockEPPh
FNDA:53,_ZN3Aes12stateToBlockEPPh
FN:548,_ZN3Aes6CipherEPhPS0_
FNDA:39,_ZN3Aes6CipherEPhPS0_
FN:580,_ZN3Aes9InvCipherEPhPS0_
FNDA:14,_ZN3Aes9InvCipherEPhPS0_
FN:611,_ZN3Aes15blockToReadableB5cxx11EPhi
FNDA:24,_ZN3Aes15blockToReadableB5cxx11EPhi
FN:637,_ZN3Aes10addPaddingEiiPh
FNDA:2,_ZN3Aes10addPaddingEiiPh
FN:669,_ZN3Aes16getPaddedMessageEPhi
FNDA:2,_ZN3Aes16getPaddedMessageEPhi
FN:695,_ZN3Aes10encryptECBEPhiS0_
FNDA:1,_ZN3Aes10encryptECBEPhiS0_
FN:734,_ZN3Aes13removePaddingEPhi
FNDA:1,_ZN3Aes13removePaddingEPhi
FN:753,_ZN3Aes17paddingStartIndexEPhi
FNDA:1,_ZN3Aes17paddingStartIndexEPhi
FN:775,_ZN3Aes10decryptECBEPhiS0_
FNDA:1,_ZN3Aes10decryptECBEPhiS0_
FN:814,_ZN3Aes10encryptCBCEPhiS0_S0_
FNDA:1,_ZN3Aes10encryptCBCEPhiS0_S0_
FN:875,_ZN3Aes10decryptCBCEPhiS0_S0_
FNDA:1,_ZN3Aes10decryptCBCEPhiS0_S0_
FN:927,_ZN3Aes10encryptOFBEPhiS0_S0_
FNDA:2,_ZN3Aes10encryptOFBEPhiS0_S0_
FN:1013,_ZN3Aes10decryptOFBEPhiS0_S0_
FNDA:2,_ZN3Aes10decryptOFBEPhiS0_S0_
FN:1101,_ZN3Aes12incrementCTREPh
FNDA:6,_ZN3Aes12incrementCTREPh
FN:1145,_ZN3Aes10encryptCTREPhiS0_S0_
FNDA:1,_ZN3Aes10encryptCTREPhiS0_S0_
FN:1231,_ZN3Aes10decryptCTREPhiS0_S0_
FNDA:1,_ZN3Aes10decryptCTREPhiS0_S0_
DA:18,13
DA:20,13
DA:21,13
DA:23,9
DA:24,9
DA:25,9
DA:26,9
DA:27,2
DA:28,2
DA:29,2
DA:30,2
DA:31,2
DA:32,2
DA:33,2
DA:34,2
DA:35,0
DA:36,0
DA:38,13
DA:40,6
DA:42,6
DA:45,28
DA:47,28
DA:50,34
DA:52,34
DA:63,402
DA:65,402
DA:67,2010
DA:69,1608
DA:72,2010
DA:74,8040
DA:76,6432
DA:80,1608
DA:82,3618
DA:84,2412
DA:85,2412
DA:86,2412
DA:87,2412
DA:89,2412
DA:90,2412
DA:91,2412
DA:92,2412
DA:96,402
DA:107,152
DA:109,152
DA:110,760
DA:112,608
DA:114,760
DA:116,3040
DA:118,2432
DA:122,608
DA:124,1368
DA:126,912
DA:127,912
DA:128,912
DA:129,912
DA:131,912
DA:132,912
DA:133,912
DA:134,912
DA:144,152
DA:155,402
DA:159,402
DA:161,2010
DA:163,8040
DA:165,6432
DA:166,6432
DA:167,6432
DA:170,402
DA:181,152
DA:185,152
DA:187,760
DA:189,3040
DA:191,2432
DA:192,2432
DA:193,2432
DA:196,152
DA:207,363
DA:209,363
DA:210,1815
DA:212,1452
DA:220,363
DA:223,1815
DA:225,7260
DA:227,5808
DA:228,1452
DA:229,1452
DA:230,1452
DA:231,1452
DA:233,4356
DA:235,1452
DA:236,1452
DA:237,1452
DA:238,1452
DA:240,2904
DA:242,1452
DA:243,1452
DA:244,1452
DA:245,1452
DA:249,1452
DA:250,1452
DA:251,1452
DA:252,1452
DA:254,5808
DA:267,363
DA:278,138
DA:280,138
DA:281,690
DA:283,552
DA:290,138
DA:292,690
DA:294,2760
DA:296,2208
DA:297,552
DA:298,552
DA:299,552
DA:300,552
DA:302,1656
DA:304,552
DA:305,552
DA:306,552
DA:307,552
DA:309,1104
DA:311,552
DA:312,552
DA:313,552
DA:314,552
DA:318,552
DA:319,552
DA:320,552
DA:321,552
DA:323,2208
DA:327,138
DA:340,607
DA:342,3035
DA:344,12140
DA:346,9712
DA:349,607
DA:360,683
DA:362,683
DA:364,26
DA:368,657
DA:381,160
DA:383,160
DA:384,843
DA:386,683
DA:388,160
DA:389,160
DA:390,160
DA:391,160
DA:393,160
DA:404,172
DA:408,172
DA:409,860
DA:411,688
DA:412,688
DA:413,688
DA:415,172
DA:426,160
DA:428,160
DA:429,800
DA:431,640
DA:433,160
DA:434,160
DA:435,160
DA:436,160
DA:437,160
DA:448,17
DA:451,17
DA:452,17
DA:454,97
DA:456,400
DA:458,320
DA:462,733
DA:464,733
DA:466,17
DA:468,716
DA:469,716
DA:470,716
DA:471,716
DA:473,716
DA:475,160
DA:476,160
DA:477,160
DA:479,160
DA:480,160
DA:481,160
DA:482,160
DA:484,556
DA:486,12
DA:489,716
DA:490,716
DA:491,716
DA:492,716
DA:495,17
DA:504,53
DA:506,53
DA:507,265
DA:509,212
DA:512,265
DA:514,1060
DA:516,848
DA:519,53
DA:528,53
DA:530,53
DA:531,265
DA:533,1060
DA:535,848
DA:538,53
DA:548,39
DA:550,39
DA:551,195
DA:553,156
DA:556,39
DA:557,39
DA:559,402
DA:561,363
DA:562,363
DA:563,363
DA:564,363
DA:567,39
DA:568,39
DA:569,39
DA:570,39
DA:580,14
DA:582,14
DA:583,70
DA:585,56
DA:587,14
DA:588,14
DA:590,152
DA:592,138
DA:593,138
DA:594,138
DA:595,138
DA:598,14
DA:599,14
DA:600,14
DA:601,14
DA:611,24
DA:613,48
DA:614,838
DA:616,814
DA:618,790
DA:622,24
DA:625,24
DA:626,48
DA:637,2
DA:639,2
DA:640,2
DA:641,2
DA:642,32
DA:644,30
DA:646,2
DA:647,2
DA:648,2
DA:650,98
DA:652,96
DA:655,34
DA:657,32
DA:659,4
DA:669,2
DA:672,2
DA:673,2
DA:675,2
DA:679,0
DA:681,2
DA:682,2
DA:684,2
DA:695,1
DA:697,1
DA:698,1
DA:699,1
DA:701,1
DA:702,5
DA:704,4
DA:707,1
DA:709,4
DA:711,3
DA:712,3
DA:713,51
DA:715,48
DA:718,3
DA:719,51
DA:721,48
DA:724,1
DA:734,1
DA:737,1
DA:738,1
DA:739,17
DA:741,16
DA:743,1
DA:753,1
DA:755,1
DA:756,16
DA:758,16
DA:760,1
DA:761,1
DA:764,1
DA:775,1
DA:777,1
DA:779,1
DA:780,5
DA:782,4
DA:785,1
DA:787,3
DA:789,2
DA:790,2
DA:791,34
DA:793,32
DA:795,2
DA:797,34
DA:799,32
DA:802,1
DA:814,1
DA:816,1
DA:817,1
DA:818,1
DA:820,1
DA:821,5
DA:823,4
DA:826,1
DA:828,1
DA:830,6
DA:832,5
DA:833,5
DA:834,5
DA:835,85
DA:837,80
DA:840,5
DA:842,17
DA:844,16
DA:849,68
DA:851,64
DA:856,5
DA:857,5
DA:858,85
DA:860,80
DA:863,1
DA:875,1
DA:877,1
DA:879,1
DA:880,5
DA:882,4
DA:885,1
DA:887,1
DA:889,6
DA:891,5
DA:892,5
DA:893,5
DA:894,85
DA:896,80
DA:898,5
DA:901,5
DA:903,17
DA:905,16
DA:910,68
DA:912,64
DA:916,85
DA:918,80
DA:920,5
DA:924,1
DA:927,2
DA:929,2
DA:931,2
DA:932,10
DA:934,8
DA:937,2
DA:939,2
DA:941,2
DA:943,10
DA:945,8
DA:946,8
DA:947,8
DA:948,8
DA:950,8
DA:952,119
DA:954,112
DA:959,16
DA:961,15
DA:965,8
DA:967,34
DA:969,32
DA:974,102
DA:976,96
DA:982,8
DA:983,8
DA:986,8
DA:988,119
DA:990,112
DA:992,119
DA:994,112
DA:999,16
DA:1001,15
DA:1003,16
DA:1005,15
DA:1010,2
DA:1013,2
DA:1017,2
DA:1019,2
DA:1020,10
DA:1022,8
DA:1025,2
DA:1027,2
DA:1029,2
DA:1031,10
DA:1033,8
DA:1034,8
DA:1035,8
DA:1036,8
DA:1038,8
DA:1040,119
DA:1042,112
DA:1047,16
DA:1049,15
DA:1053,8
DA:1055,34
DA:1057,32
DA:1062,102
DA:1064,96
DA:1070,8
DA:1071,8
DA:1074,8
DA:1076,119
DA:1078,112
DA:1080,119
DA:1082,112
DA:1087,16
DA:1089,15
DA:1091,16
DA:1093,15
DA:1098,2
DA:1101,6
DA:1103,6
DA:1104,6
DA:1105,6
DA:1106,6
DA:1107,102
DA:1109,96
DA:1112,6
DA:1114,4
DA:1115,4
DA:1121,2
DA:1122,2
DA:1123,2
DA:1126,2
DA:1129,2
DA:1130,2
DA:1134,2
DA:1136,0
DA:1138,2
DA:1141,2
DA:1145,1
DA:1147,1
DA:1149,1
DA:1150,5
DA:1152,4
DA:1155,1
DA:1157,1
DA:1159,1
DA:1161,5
DA:1163,4
DA:1164,4
DA:1165,4
DA:1166,4
DA:1168,4
DA:1170,68
DA:1172,64
DA:1177,0
DA:1179,0
DA:1183,4
DA:1185,17
DA:1187,16
DA:1194,3
DA:1200,4
DA:1201,4
DA:1204,4
DA:1206,68
DA:1208,64
DA:1210,68
DA:1212,64
DA:1217,0
DA:1219,0
DA:1221,0
DA:1223,0
DA:1228,1
DA:1231,1
DA:1233,1
DA:1235,1
DA:1236,5
DA:1238,4
DA:1241,1
DA:1243,1
DA:1245,1
DA:1247,5
DA:1249,4
DA:1250,4
DA:1251,4
DA:1252,4
DA:1254,4
DA:1256,68
DA:1258,64
DA:1263,0
DA:1265,0
DA:1269,4
DA:1271,17
DA:1273,16
DA:1280,3
DA:1286,4
DA:1287,4
DA:1290,4
DA:1292,68
DA:1294,64
DA:1296,68
DA:1298,64
DA:1303,0
DA:1305,0
DA:1307,0
DA:1309,0
DA:1314,1
end_of_record
TN:
SF:/usr/include/c++/9/tuple
FN:113,_ZNSt10_Head_baseILm1ESt14default_deleteINSt7__cxx1118basic_stringstreamIcSt11char_traitsIcESaIcEEEELb1EE7_M_headERS8_
FNDA:0,_ZNSt10_Head_baseILm1ESt14default_deleteINSt7__cxx1118basic_stringstreamIcSt11char_traitsIcESaIcEEEELb1EE7_M_headERS8_
FN:113,_ZNSt10_Head_baseILm1ESt14default_deleteINSt7__cxx1112basic_stringIcSt11char_traitsIcESaIcEEEELb1EE7_M_headERS8_
FNDA:0,_ZNSt10_Head_baseILm1ESt14default_deleteINSt7__cxx1112basic_stringIcSt11char_traitsIcESaIcEEEELb1EE7_M_headERS8_
FN:160,_ZNSt10_Head_baseILm0EPNSt7__cxx1112basic_stringIcSt11char_traitsIcESaIcEEELb0EE7_M_headERS7_
FNDA:24,_ZNSt10_Head_baseILm0EPNSt7__cxx1112basic_stringIcSt11char_traitsIcESaIcEEELb0EE7_M_headERS7_
FN:160,_ZNSt10_Head_baseILm0EPNSt7__cxx1118basic_stringstreamIcSt11char_traitsIcESaIcEEELb0EE7_M_headERS7_
FNDA:0,_ZNSt10_Head_baseILm0EPNSt7__cxx1118basic_stringstreamIcSt11char_traitsIcESaIcEEELb0EE7_M_headERS7_
FN:163,_ZNSt10_Head_baseILm0EPNSt7__cxx1112basic_stringIcSt11char_traitsIcESaIcEEELb0EE7_M_headERKS7_
FNDA:0,_ZNSt10_Head_baseILm0EPNSt7__cxx1112basic_stringIcSt11char_traitsIcESaIcEEELb0EE7_M_headERKS7_
FN:195,_ZNSt11_Tuple_implILm0EJPNSt7__cxx1112basic_stringIcSt11char_traitsIcESaIcEEESt14default_deleteIS5_EEE7_M_headERS9_
FNDA:24,_ZNSt11_Tuple_implILm0EJPNSt7__cxx1112basic_stringIcSt11char_traitsIcESaIcEEESt14default_deleteIS5_EEE7_M_headERS9_
FN:195,_ZNSt11_Tuple_implILm0EJPNSt7__cxx1118basic_stringstreamIcSt11char_traitsIcESaIcEEESt14default_deleteIS5_EEE7_M_headERS9_
FNDA:0,_ZNSt11_Tuple_implILm0EJPNSt7__cxx1118basic_stringstreamIcSt11char_traitsIcESaIcEEESt14default_deleteIS5_EEE7_M_headERS9_
FN:198,_ZNSt11_Tuple_implILm0EJPNSt7__cxx1112basic_stringIcSt11char_traitsIcESaIcEEESt14default_deleteIS5_EEE7_M_headERKS9_
FNDA:0,_ZNSt11_Tuple_implILm0EJPNSt7__cxx1112basic_stringIcSt11char_traitsIcESaIcEEESt14default_deleteIS5_EEE7_M_headERKS9_
FN:334,_ZNSt11_Tuple_implILm1EJSt14default_deleteINSt7__cxx1112basic_stringIcSt11char_traitsIcESaIcEEEEEE7_M_headERS8_
FNDA:0,_ZNSt11_Tuple_implILm1EJSt14default_deleteINSt7__cxx1112basic_stringIcSt11char_traitsIcESaIcEEEEEE7_M_headERS8_
FN:334,_ZNSt11_Tuple_implILm1EJSt14default_deleteINSt7__cxx1118basic_stringstreamIcSt11char_traitsIcESaIcEEEEEE7_M_headERS8_
FNDA:0,_ZNSt11_Tuple_implILm1EJSt14default_deleteINSt7__cxx1118basic_stringstreamIcSt11char_traitsIcESaIcEEEEEE7_M_headERS8_
FN:1309,_ZSt12__get_helperILm1ESt14default_deleteINSt7__cxx1118basic_stringstreamIcSt11char_traitsIcESaIcEEEEJEERT0_RSt11_Tuple_implIXT_EJS8_DpT1_EE
FNDA:0,_ZSt12__get_helperILm1ESt14default_deleteINSt7__cxx1118basic_stringstreamIcSt11char_traitsIcESaIcEEEEJEERT0_RSt11_Tuple_implIXT_EJS8_DpT1_EE
FN:1309,_ZSt12__get_helperILm0EPNSt7__cxx1118basic_stringstreamIcSt11char_traitsIcESaIcEEEJSt14default_deleteIS5_EEERT0_RSt11_Tuple_implIXT_EJS9_DpT1_EE
FNDA:0,_ZSt12__get_helperILm0EPNSt7__cxx1118basic_stringstreamIcSt11char_traitsIcESaIcEEEJSt14default_deleteIS5_EEERT0_RSt11_Tuple_implIXT_EJS9_DpT1_EE
FN:1309,_ZSt12__get_helperILm0EPNSt7__cxx1112basic_stringIcSt11char_traitsIcESaIcEEEJSt14default_deleteIS5_EEERT0_RSt11_Tuple_implIXT_EJS9_DpT1_EE
FNDA:24,_ZSt12__get_helperILm0EPNSt7__cxx1112basic_stringIcSt11char_traitsIcESaIcEEEJSt14default_deleteIS5_EEERT0_RSt11_Tuple_implIXT_EJS9_DpT1_EE
FN:1309,_ZSt12__get_helperILm1ESt14default_deleteINSt7__cxx1112basic_stringIcSt11char_traitsIcESaIcEEEEJEERT0_RSt11_Tuple_implIXT_EJS8_DpT1_EE
FNDA:0,_ZSt12__get_helperILm1ESt14default_deleteINSt7__cxx1112basic_stringIcSt11char_traitsIcESaIcEEEEJEERT0_RSt11_Tuple_implIXT_EJS8_DpT1_EE
FN:1314,_ZSt12__get_helperILm0EPNSt7__cxx1112basic_stringIcSt11char_traitsIcESaIcEEEJSt14default_deleteIS5_EEERKT0_RKSt11_Tuple_implIXT_EJS9_DpT1_EE
FNDA:0,_ZSt12__get_helperILm0EPNSt7__cxx1112basic_stringIcSt11char_traitsIcESaIcEEEJSt14default_deleteIS5_EEERKT0_RKSt11_Tuple_implIXT_EJS9_DpT1_EE
FN:1320,_ZSt3getILm1EJPNSt7__cxx1112basic_stringIcSt11char_traitsIcESaIcEEESt14default_deleteIS5_EEERNSt13tuple_elementIXT_ESt5tupleIJDpT0_EEE4typeERSD_
FNDA:0,_ZSt3getILm1EJPNSt7__cxx1112basic_stringIcSt11char_traitsIcESaIcEEESt14default_deleteIS5_EEERNSt13tuple_elementIXT_ESt5tupleIJDpT0_EEE4typeERSD_
FN:1320,_ZSt3getILm1EJPNSt7__cxx1118basic_stringstreamIcSt11char_traitsIcESaIcEEESt14default_deleteIS5_EEERNSt13tuple_elementIXT_ESt5tupleIJDpT0_EEE4typeERSD_
FNDA:0,_ZSt3getILm1EJPNSt7__cxx1118basic_stringstreamIcSt11char_traitsIcESaIcEEESt14default_deleteIS5_EEERNSt13tuple_elementIXT_ESt5tupleIJDpT0_EEE4typeERSD_
FN:1320,_ZSt3getILm0EJPNSt7__cxx1112basic_stringIcSt11char_traitsIcESaIcEEESt14default_deleteIS5_EEERNSt13tuple_elementIXT_ESt5tupleIJDpT0_EEE4typeERSD_
FNDA:24,_ZSt3getILm0EJPNSt7__cxx1112basic_stringIcSt11char_traitsIcESaIcEEESt14default_deleteIS5_EEERNSt13tuple_elementIXT_ESt5tupleIJDpT0_EEE4typeERSD_
FN:1320,_ZSt3getILm0EJPNSt7__cxx1118basic_stringstreamIcSt11char_traitsIcESaIcEEESt14default_deleteIS5_EEERNSt13tuple_elementIXT_ESt5tupleIJDpT0_EEE4typeERSD_
FNDA:0,_ZSt3getILm0EJPNSt7__cxx1118basic_stringstreamIcSt11char_traitsIcESaIcEEESt14default_deleteIS5_EEERNSt13tuple_elementIXT_ESt5tupleIJDpT0_EEE4typeERSD_
FN:1326,_ZSt3getILm0EJPNSt7__cxx1112basic_stringIcSt11char_traitsIcESaIcEEESt14default_deleteIS5_EEERKNSt13tuple_elementIXT_ESt5tupleIJDpT0_EEE4typeERKSD_
FNDA:0,_ZSt3getILm0EJPNSt7__cxx1112basic_stringIcSt11char_traitsIcESaIcEEESt14default_deleteIS5_EEERKNSt13tuple_elementIXT_ESt5tupleIJDpT0_EEE4typeERKSD_
DA:113,0
DA:113,0
DA:160,24
DA:160,0
DA:163,0
DA:195,24
DA:195,0
DA:198,0
DA:334,0
DA:334,0
DA:1309,0
DA:1310,0
DA:1309,0
DA:1310,0
DA:1309,24
DA:1310,24
DA:1309,0
DA:1310,0
DA:1314,0
DA:1315,0
DA:1320,0
DA:1321,0
DA:1320,0
DA:1321,0
DA:1320,24
DA:1321,24
DA:1320,0
DA:1321,0
DA:1326,0
DA:1327,0
end_of_record
SF:/home/ishansrt/stuff/aes/src/aes.cpp
FN:18,_ZN3AesC2Ei
FNDA:13,_ZN3AesC2Ei
FN:40,_ZN3Aes5getNkEv
FNDA:6,_ZN3Aes5getNkEv
FN:45,_ZN3Aes5getNrEv
FNDA:28,_ZN3Aes5getNrEv
FN:50,_ZN3Aes5getNbEv
FNDA:34,_ZN3Aes5getNbEv
FN:63,_ZN3Aes9ShiftRowsEPPh
FNDA:402,_ZN3Aes9ShiftRowsEPPh
FN:107,_ZN3Aes12InvShiftRowsEPPh
FNDA:152,_ZN3Aes12InvShiftRowsEPPh
FN:155,_ZN3Aes8SubBytesEPPh
FNDA:402,_ZN3Aes8SubBytesEPPh
FN:181,_ZN3Aes11InvSubBytesEPPh
FNDA:152,_ZN3Aes11InvSubBytesEPPh
FN:207,_ZN3Aes10MixColumnsEPPh
FNDA:363,_ZN3Aes10MixColumnsEPPh
FN:278,_ZN3Aes13InvMixColumnsEPPh
FNDA:138,_ZN3Aes13InvMixColumnsEPPh
FN:340,_ZN3Aes11AddRoundKeyEPPhS1_i
FNDA:607,_ZN3Aes11AddRoundKeyEPPhS1_i
FN:360,_ZN3Aes5xtimeEh
FNDA:683,_ZN3Aes5xtimeEh
FN:381,_ZN3Aes4RconEPhi
FNDA:160,_ZN3Aes4RconEPhi
FN:404,_ZN3Aes7SubWordEPh
FNDA:172,_ZN3Aes7SubWordEPh
FN:426,_ZN3Aes7RotWordEPh
FNDA:160,_ZN3Aes7RotWordEPh
FN:448,_ZN3Aes12KeyExpansionEPhPS0_
FNDA:17,_ZN3Aes12KeyExpansionEPhPS0_
FN:504,_ZN3Aes12blockToStateEPh
FNDA:53,_ZN3Aes12blockToStateEPh
FN:528,_ZN3Aes12stateToBlockEPPh
FNDA:53,_ZN3Aes12stateToBlockEPPh
FN:548,_ZN3Aes6CipherEPhPS0_
FNDA:39,_ZN3Aes6CipherEPhPS0_
FN:580,_ZN3Aes9InvCipherEPhPS0_
FNDA:14,_ZN3Aes9InvCipherEPhPS0_
FN:611,_ZN3Aes15blockToReadableB5cxx11EPhi
FNDA:24,_ZN3Aes15blockToReadableB5cxx11EPhi
FN:637,_ZN3Aes10addPaddingEiiPh
FNDA:2,_ZN3Aes10addPaddingEiiPh
FN:669,_ZN3Aes16getPaddedMessageEPhi
FNDA:2,_ZN3Aes16getPaddedMessageEPhi
FN:695,_ZN3Aes10encryptECBEPhiS0_
FNDA:1,_ZN3Aes10encryptECBEPhiS0_
FN:734,_ZN3Aes13removePaddingEPhi
FNDA:1,_ZN3Aes13removePaddingEPhi
FN:753,_ZN3Aes17paddingStartIndexEPhi
FNDA:1,_ZN3Aes17paddingStartIndexEPhi
FN:775,_ZN3Aes10decryptECBEPhiS0_
FNDA:1,_ZN3Aes10decryptECBEPhiS0_
FN:814,_ZN3Aes10encryptCBCEPhiS0_S0_
FNDA:1,_ZN3Aes10encryptCBCEPhiS0_S0_
FN:875,_ZN3Aes10decryptCBCEPhiS0_S0_
FNDA:1,_ZN3Aes10decryptCBCEPhiS0_S0_
FN:927,_ZN3Aes10encryptOFBEPhiS0_S0_
FNDA:2,_ZN3Aes10encryptOFBEPhiS0_S0_
FN:1013,_ZN3Aes10decryptOFBEPhiS0_S0_
FNDA:2,_ZN3Aes10decryptOFBEPhiS0_S0_
FN:1101,_ZN3Aes12incrementCTREPh
FNDA:6,_ZN3Aes12incrementCTREPh
FN:1145,_ZN3Aes10encryptCTREPhiS0_S0_
FNDA:1,_ZN3Aes10encryptCTREPhiS0_S0_
FN:1231,_ZN3Aes10decryptCTREPhiS0_S0_
FNDA:1,_ZN3Aes10decryptCTREPhiS0_S0_
DA:18,13
DA:20,13
DA:21,13
DA:23,9
DA:24,9
DA:25,9
DA:26,9
DA:27,2
DA:28,2
DA:29,2
DA:30,2
DA:31,2
DA:32,2
DA:33,2
DA:34,2
DA:35,0
DA:36,0
DA:38,13
DA:40,6
DA:42,6
DA:45,28
DA:47,28
DA:50,34
DA:52,34
DA:63,402
DA:65,402
DA:67,2010
DA:69,1608
DA:72,2010
DA:74,8040
DA:76,6432
DA:80,1608
DA:82,3618
DA:84,2412
DA:85,2412
DA:86,2412
DA:87,2412
DA:89,2412
DA:90,2412
DA:91,2412
DA:92,2412
DA:96,402
DA:107,152
DA:109,152
DA:110,760
DA:112,608
DA:114,760
DA:116,3040
DA:118,2432
DA:122,608
DA:124,1368
DA:126,912
DA:127,912
DA:128,912
DA:129,912
DA:131,912
DA:132,912
DA:133,912
DA:134,912
DA:144,152
DA:155,402
DA:159,402
DA:161,2010
DA:163,8040
DA:165,6432
DA:166,6432
DA:167,6432
DA:170,402
DA:181,152
DA:185,152
DA:187,760
DA:189,3040
DA:191,2432
DA:192,2432
DA:193,2432
DA:196,152
DA:207,363
DA:209,363
DA:210,1815
DA:212,1452
DA:220,363
DA:223,1815
DA:225,7260
DA:227,5808
DA:228,1452
DA:229,1452
DA:230,1452
DA:231,1452
DA:233,4356
DA:235,1452
DA:236,1452
DA:237,1452
DA:238,1452
DA:240,2904
DA:242,1452
DA:243,1452
DA:244,1452
DA:245,1452
DA:249,1452
DA:250,1452
DA:251,1452
DA:252,1452
DA:254,5808
DA:267,363
DA:278,138
DA:280,138
DA:281,690
DA:283,552
DA:290,138
DA:292,690
DA:294,2760
DA:296,2208
DA:297,552
DA:298,552
DA:299,552
DA:300,552
DA:302,1656
DA:304,552
DA:305,552
DA:306,552
DA:307,552
DA:309,1104
DA:311,552
DA:312,552
DA:313,552
DA:314,552
DA:318,552
DA:319,552
DA:320,552
DA:321,552
DA:323,2208
DA:327,138
DA:340,607
DA:342,3035
DA:344,12140
DA:346,9712
DA:349,607
DA:360,683
DA:362,683
DA:364,26
DA:368,657
DA:381,160
DA:383,160
DA:384,843
DA:386,683
DA:388,160
DA:389,160
DA:390,160
DA:391,160
DA:393,160
DA:404,172
DA:408,172
DA:409,860
DA:411,688
DA:412,688
DA:413,688
DA:415,172
DA:426,160
DA:428,160
DA:429,800
DA:431,640
DA:433,160
DA:434,160
DA:435,160
DA:436,160
DA:437,160
DA:448,17
DA:451,17
DA:452,17
DA:454,97
DA:456,400
DA:458,320
DA:462,733
DA:464,733
DA:466,17
DA:468,716
DA:469,716
DA:470,716
DA:471,716
DA:473,716
DA:475,160
DA:476,160
DA:477,160
DA:479,160
DA:480,160
DA:481,160
DA:482,160
DA:484,556
DA:486,12
DA:489,716
DA:490,716
DA:491,716
DA:492,716
DA:495,17
DA:504,53
DA:506,53
DA:507,265
DA:509,212
DA:512,265
DA:514,1060
DA:516,848
DA:519,53
DA:528,53
DA:530,53
DA:531,265
DA:533,1060
DA:535,848
DA:538,53
DA:548,39
DA:550,39
DA:551,195
DA:553,156
DA:556,39
DA:557,39
DA:559,402
DA:561,363
DA:562,363
DA:563,363
DA:564,363
DA:567,39
DA:568,39
DA:569,39
DA:570,39
DA:580,14
DA:582,14
DA:583,70
DA:585,56
DA:587,14
DA:588,14
DA:590,152
DA:592,138
DA:593,138
DA:594,138
DA:595,138
DA:598,14
DA:599,14
DA:600,14
DA:601,14
DA:611,24
DA:613,48
DA:614,838
DA:616,814
DA:618,790
DA:622,24
DA:625,24
DA:626,48
DA:637,2
DA:639,2
DA:640,2
DA:641,2
DA:642,32
DA:644,30
DA:646,2
DA:647,2
DA:648,2
DA:650,98
DA:652,96
DA:655,34
DA:657,32
DA:659,4
DA:669,2
DA:672,2
DA:673,2
DA:675,2
DA:679,0
DA:681,2
DA:682,2
DA:684,2
DA:695,1
DA:697,1
DA:698,1
DA:699,1
DA:701,1
DA:702,5
DA:704,4
DA:707,1
DA:709,4
DA:711,3
DA:712,3
DA:713,51
DA:715,48
DA:718,3
DA:719,51
DA:721,48
DA:724,1
DA:734,1
DA:737,1
DA:738,1
DA:739,17
DA:741,16
DA:743,1
DA:753,1
DA:755,1
DA:756,16
DA:758,16
DA:760,1
DA:761,1
DA:764,1
DA:775,1
DA:777,1
DA:779,1
DA:780,5
DA:782,4
DA:785,1
DA:787,3
DA:789,2
DA:790,2
DA:791,34
DA:793,32
DA:795,2
DA:797,34
DA:799,32
DA:802,1
DA:814,1
DA:816,1
DA:817,1
DA:818,1
DA:820,1
DA:821,5
DA:823,4
DA:826,1
DA:828,1
DA:830,6
DA:832,5
DA:833,5
DA:834,5
DA:835,85
DA:837,80
DA:840,5
DA:842,17
DA:844,16
DA:849,68
DA:851,64
DA:856,5
DA:857,5
DA:858,85
DA:860,80
DA:863,1
DA:875,1
DA:877,1
DA:879,1
DA:880,5
DA:882,4
DA:885,1
DA:887,1
DA:889,6
DA:891,5
DA:892,5
DA:893,5
DA:894,85
DA:896,80
DA:898,5
DA:901,5
DA:903,17
DA:905,16
DA:910,68
DA:912,64
DA:916,85
DA:918,80
DA:920,5
DA:924,1
DA:927,2
DA:929,2
DA:931,2
DA:932,10
DA:934,8
DA:937,2
DA:939,2
DA:941,2
DA:943,10
DA:945,8
DA:946,8
DA:947,8
DA:948,8
DA:950,8
DA:952,119
DA:954,112
DA:959,16
DA:961,15
DA:965,8
DA:967,34
DA:969,32
DA:974,102
DA:976,96
DA:982,8
DA:983,8
DA:986,8
DA:988,119
DA:990,112
DA:992,119
DA:994,112
DA:999,16
DA:1001,15
DA:1003,16
DA:1005,15
DA:1010,2
DA:1013,2
DA:1017,2
DA:1019,2
DA:1020,10
DA:1022,8
DA:1025,2
DA:1027,2
DA:1029,2
DA:1031,10
DA:1033,8
DA:1034,8
DA:1035,8
DA:1036,8
DA:1038,8
DA:1040,119
DA:1042,112
DA:1047,16
DA:1049,15
DA:1053,8
DA:1055,34
DA:1057,32
DA:1062,102
DA:1064,96
DA:1070,8
DA:1071,8
DA:1074,8
DA:1076,119
DA:1078,112
DA:1080,119
DA:1082,112
DA:1087,16
DA:1089,15
DA:1091,16
DA:1093,15
DA:1098,2
DA:1101,6
DA:1103,6
DA:1104,6
DA:1105,6
DA:1106,6
DA:1107,102
DA:1109,96
DA:1112,6
DA:1114,4
DA:1115,4
DA:1121,2
DA:1122,2
DA:1123,2
DA:1126,2
DA:1129,2
DA:1130,2
DA:1134,2
DA:1136,0
DA:1138,2
DA:1141,2
DA:1145,1
DA:1147,1
DA:1149,1
DA:1150,5
DA:1152,4
DA:1155,1
DA:1157,1
DA:1159,1
DA:1161,5
DA:1163,4
DA:1164,4
DA:1165,4
DA:1166,4
DA:1168,4
DA:1170,68
DA:1172,64
DA:1177,0
DA:1179,0
DA:1183,4
DA:1185,17
DA:1187,16
DA:1194,3
DA:1200,4
DA:1201,4
DA:1204,4
DA:1206,68
DA:1208,64
DA:1210,68
DA:1212,64
DA:1217,0
DA:1219,0
DA:1221,0
DA:1223,0
DA:1228,1
DA:1231,1
DA:1233,1
DA:1235,1
DA:1236,5
DA:1238,4
DA:1241,1
DA:1243,1
DA:1245,1
DA:1247,5
DA:1249,4
DA:1250,4
DA:1251,4
DA:1252,4
DA:1254,4
DA:1256,68
DA:1258,64
DA:1263,0
DA:1265,0
DA:1269,4
DA:1271,17
DA:1273,16
DA:1280,3
DA:1286,4
DA:1287,4
DA:1290,4
DA:1292,68
DA:1294,64
DA:1296,68
DA:1298,64
DA:1303,0
DA:1305,0
DA:1307,0
DA:1309,0
DA:1314,1
end_of_record
SF:/usr/include/gtest/gtest-printers.h
FN:313,_ZN7testing8internal19FormatForComparisonINSt7__cxx1112basic_stringIcSt11char_traitsIcESaIcEEES7_E6FormatERKS7_
FNDA:0,_ZN7testing8internal19FormatForComparisonINSt7__cxx1112basic_stringIcSt11char_traitsIcESaIcEEES7_E6FormatERKS7_
FN:377,_ZN7testing8internal33FormatForComparisonFailureMessageINSt7__cxx1112basic_stringIcSt11char_traitsIcESaIcEEES7_EES7_RKT_RKT0_
FNDA:0,_ZN7testing8internal33FormatForComparisonFailureMessageINSt7__cxx1112basic_stringIcSt11char_traitsIcESaIcEEES7_EES7_RKT_RKT0_
FN:594,_ZN7testing8internal7PrintToERKNSt7__cxx1112basic_stringIcSt11char_traitsIcESaIcEEEPSo
FNDA:0,_ZN7testing8internal7PrintToERKNSt7__cxx1112basic_stringIcSt11char_traitsIcESaIcEEEPSo
FN:670,_ZN7testing8internal16UniversalPrinterINSt7__cxx1112basic_stringIcSt11char_traitsIcESaIcEEEE5PrintERKS7_PSo
FNDA:0,_ZN7testing8internal16UniversalPrinterINSt7__cxx1112basic_stringIcSt11char_traitsIcESaIcEEEE5PrintERKS7_PSo
FN:796,_ZN7testing8internal21UniversalTersePrinterINSt7__cxx1112basic_stringIcSt11char_traitsIcESaIcEEEE5PrintERKS7_PSo
FNDA:0,_ZN7testing8internal21UniversalTersePrinterINSt7__cxx1112basic_stringIcSt11char_traitsIcESaIcEEEE5PrintERKS7_PSo
FN:865,_ZN7testing8internal14UniversalPrintINSt7__cxx1112basic_stringIcSt11char_traitsIcESaIcEEEEEvRKT_PSo
FNDA:0,_ZN7testing8internal14UniversalPrintINSt7__cxx1112basic_stringIcSt11char_traitsIcESaIcEEEEEvRKT_PSo
FN:915,_ZN7testing13PrintToStringINSt7__cxx1112basic_stringIcSt11char_traitsIcESaIcEEEEES6_RKT_
FNDA:0,_ZN7testing13PrintToStringINSt7__cxx1112basic_stringIcSt11char_traitsIcESaIcEEEEES6_RKT_
DA:313,0
DA:314,0
DA:377,0
DA:379,0
DA:594,0
DA:595,0
DA:596,0
DA:670,0
DA:679,0
DA:680,0
DA:796,0
DA:797,0
DA:798,0
DA:865,0
DA:869,0
DA:870,0
DA:915,0
DA:916,0
DA:917,0
DA:918,0
end_of_record
SF:/usr/include/c++/9/bits/stl_iterator_base_types.h
FN:205,_ZSt19__iterator_categoryIPcENSt15iterator_traitsIT_E17iterator_categoryERKS2_
FNDA:0,_ZSt19__iterator_categoryIPcENSt15iterator_traitsIT_E17iterator_categoryERKS2_
FN:205,_ZSt19__iterator_categoryIPKcENSt15iterator_traitsIT_E17iterator_categoryERKS3_
FNDA:0,_ZSt19__iterator_categoryIPKcENSt15iterator_traitsIT_E17iterator_categoryERKS3_
DA:205,0
DA:206,0
DA:205,0
DA:206,0
end_of_record
SF:/usr/include/gtest/internal/gtest-internal.h
FN:442,_ZN7testing8internal15TestFactoryBaseD2Ev
FNDA:13,_ZN7testing8internal15TestFactoryBaseD2Ev
FN:442,_ZN7testing8internal15TestFactoryBaseD0Ev
FNDA:0,_ZN7testing8internal15TestFactoryBaseD0Ev
FN:449,_ZN7testing8internal15TestFactoryBaseC2Ev
FNDA:13,_ZN7testing8internal15TestFactoryBaseC2Ev
FN:460,_ZN7testing8internal15TestFactoryImplI18TestOFB_Test1_TestE10CreateTestEv
FNDA:1,_ZN7testing8internal15TestFactoryImplI18TestOFB_Test1_TestE10CreateTestEv
FN:460,_ZN7testing8internal15TestFactoryImplI18TestCTR_Test1_TestE10CreateTestEv
FNDA:1,_ZN7testing8internal15TestFactoryImplI18TestCTR_Test1_TestE10CreateTestEv
FN:460,_ZN7testing8internal15TestFactoryImplI46TestOFB_TestMessagenotmultipleofblocksize_TestE10CreateTestEv
FNDA:1,_ZN7testing8internal15TestFactoryImplI46TestOFB_TestMessagenotmultipleofblocksize_TestE10CreateTestEv
FN:460,_ZN7testing8internal15TestFactoryImplI27StdTestCase1_KeyLen128_TestE10CreateTestEv
FNDA:1,_ZN7testing8internal15TestFactoryImplI27StdTestCase1_KeyLen128_TestE10CreateTestEv
FN:460,_ZN7testing8internal15TestFactoryImplI18TestCBC_Test1_TestE10CreateTestEv
FNDA:1,_ZN7testing8internal15TestFactoryImplI18TestCBC_Test1_TestE10CreateTestEv
FN:460,_ZN7testing8internal15TestFactoryImplI25TestECB_DecryptTest1_TestE10CreateTestEv
FNDA:1,_ZN7testing8internal15TestFactoryImplI25TestECB_DecryptTest1_TestE10CreateTestEv
FN:460,_ZN7testing8internal15TestFactoryImplI25TestECB_EncryptTest1_TestE10CreateTestEv
FNDA:1,_ZN7testing8internal15TestFactoryImplI25TestECB_EncryptTest1_TestE10CreateTestEv
FN:460,_ZN7testing8internal15TestFactoryImplI27StdTestCase2_KeyLen256_TestE10CreateTestEv
FNDA:1,_ZN7testing8internal15TestFactoryImplI27StdTestCase2_KeyLen256_TestE10CreateTestEv
FN:460,_ZN7testing8internal15TestFactoryImplI27StdTestCase2_KeyLen192_TestE10CreateTestEv
FNDA:1,_ZN7testing8internal15TestFactoryImplI27StdTestCase2_KeyLen192_TestE10CreateTestEv
FN:460,_ZN7testing8internal15TestFactoryImplI27StdTestCase2_KeyLen128_TestE10CreateTestEv
FNDA:1,_ZN7testing8internal15TestFactoryImplI27StdTestCase2_KeyLen128_TestE10CreateTestEv
FN:460,_ZN7testing8internal15TestFactoryImplI57WrongTestCaseStdTestCase1AesWorkingWith128_KeyLen256_TestE10CreateTestEv
FNDA:1,_ZN7testing8internal15TestFactoryImplI57WrongTestCaseStdTestCase1AesWorkingWith128_KeyLen256_TestE10CreateTestEv
FN:460,_ZN7testing8internal15TestFactoryImplI27StdTestCase1_KeyLen256_TestE10CreateTestEv
FNDA:1,_ZN7testing8internal15TestFactoryImplI27StdTestCase1_KeyLen256_TestE10CreateTestEv
FN:460,_ZN7testing8internal15TestFactoryImplI27StdTestCase1_KeyLen192_TestE10CreateTestEv
FNDA:1,_ZN7testing8internal15TestFactoryImplI27StdTestCase1_KeyLen192_TestE10CreateTestEv
FN:481,_ZN7testing8internal12CodeLocationC2ERKNSt7__cxx1112basic_stringIcSt11char_traitsIcESaIcEEEi
FNDA:13,_ZN7testing8internal12CodeLocationC2ERKNSt7__cxx1112basic_stringIcSt11char_traitsIcESaIcEEEi
FN:494,_ZN7testing8internal19GetNotDefaultOrNullEPFvvES2_
FNDA:52,_ZN7testing8internal19GetNotDefaultOrNullEPFvvES2_
FN:509,_ZN7testing8internal16SuiteApiResolverINS_4TestEE19GetSetUpCaseOrSuiteEPKci
FNDA:13,_ZN7testing8internal16SuiteApiResolverINS_4TestEE19GetSetUpCaseOrSuiteEPKci
FN:524,_ZN7testing8internal16SuiteApiResolverINS_4TestEE22GetTearDownCaseOrSuiteEPKci
FNDA:13,_ZN7testing8internal16SuiteApiResolverINS_4TestEE22GetTearDownCaseOrSuiteEPKci
DA:442,0
DA:442,13
DA:449,13
DA:460,1
DA:460,1
DA:460,1
DA:460,1
DA:460,1
DA:460,1
DA:460,1
DA:460,1
DA:460,1
DA:460,1
DA:460,1
DA:460,1
DA:460,1
DA:481,13
DA:482,13
DA:494,52
DA:496,52
DA:509,13
DA:512,13
DA:514,13
DA:516,13
DA:519,0
DA:521,13
DA:524,13
DA:527,13
DA:529,13
DA:531,13
DA:534,0
DA:536,13
end_of_record
SF:/usr/include/gtest/gtest.h
FN:312,_ZNK7testing15AssertionResultcvbEv
FNDA:24,_ZNK7testing15AssertionResultcvbEv
FN:321,_ZNK7testing15AssertionResult7messageEv
FNDA:0,_ZNK7testing15AssertionResult7messageEv
FN:325,_ZNK7testing15AssertionResult15failure_messageEv
FNDA:0,_ZNK7testing15AssertionResult15failure_messageEv
FN:417,_ZN7testing4Test14SetUpTestSuiteEv
FNDA:0,_ZN7testing4Test14SetUpTestSuiteEv
FN:427,_ZN7testing4Test17TearDownTestSuiteEv
FNDA:0,_ZN7testing4Test17TearDownTestSuiteEv
FN:431,_ZN7testing4Test16TearDownTestCaseEv
FNDA:0,_ZN7testing4Test16TearDownTestCaseEv
FN:432,_ZN7testing4Test13SetUpTestCaseEv
FNDA:0,_ZN7testing4Test13SetUpTestCaseEv
FN:513,_ZN7testing4Test5SetupEv
FNDA:0,_ZN7testing4Test5SetupEv
FN:1504,_ZN7testing8internal18CmpHelperEQFailureINSt7__cxx1112basic_stringIcSt11char_traitsIcESaIcEEES7_EENS_15AssertionResultEPKcSA_RKT_RKT0_
FNDA:0,_ZN7testing8internal18CmpHelperEQFailureINSt7__cxx1112basic_stringIcSt11char_traitsIcESaIcEEES7_EENS_15AssertionResultEPKcSA_RKT_RKT0_
FN:1523,_ZN7testing8internal11CmpHelperEQINSt7__cxx1112basic_stringIcSt11char_traitsIcESaIcEEES7_EENS_15AssertionResultEPKcSA_RKT_RKT0_
FNDA:24,_ZN7testing8internal11CmpHelperEQINSt7__cxx1112basic_stringIcSt11char_traitsIcESaIcEEES7_EENS_15AssertionResultEPKcSA_RKT_RKT0_
FN:1551,_ZN7testing8internal8EqHelper7CompareINSt7__cxx1112basic_stringIcSt11char_traitsIcESaIcEEES8_LPv0EEENS_15AssertionResultEPKcSC_RKT_RKT0_
FNDA:24,_ZN7testing8internal8EqHelper7CompareINSt7__cxx1112basic_stringIcSt11char_traitsIcESaIcEEES8_LPv0EEENS_15AssertionResultEPKcSC_RKT_RKT0_
FN:2472,_Z13RUN_ALL_TESTSv
FNDA:1,_Z13RUN_ALL_TESTSv
DA:312,24
DA:321,0
DA:322,0
DA:325,0
DA:417,0
DA:427,0
DA:431,0
DA:432,0
DA:513,0
DA:1504,0
DA:1511,0
DA:1523,24
DA:1527,24
DA:1528,24
DA:1531,0
DA:1551,24
DA:1554,24
DA:2472,1
DA:2473,1
end_of_record
SF:/usr/include/c++/9/bits/alloc_traits.h
FN:514,_ZNSt16allocator_traitsISaIcEE37select_on_container_copy_constructionERKS0_
FNDA:0,_ZNSt16allocator_traitsISaIcEE37select_on_container_copy_constructionERKS0_
DA:514,0
DA:515,0
end_of_record
SF:/usr/include/gtest/internal/gtest-port.h
FN:957,_ZN7testing8internal8GTestLog9GetStreamEv
FNDA:0,_ZN7testing8internal8GTestLog9GetStreamEv
DA:957,0
end_of_record
SF:/usr/include/c++/9/bits/stl_iterator_base_funcs.h
FN:98,_ZSt10__distanceIPcENSt15iterator_traitsIT_E15difference_typeES2_S2_St26random_access_iterator_tag
FNDA:0,_ZSt10__distanceIPcENSt15iterator_traitsIT_E15difference_typeES2_S2_St26random_access_iterator_tag
FN:98,_ZSt10__distanceIPKcENSt15iterator_traitsIT_E15difference_typeES3_S3_St26random_access_iterator_tag
FNDA:0,_ZSt10__distanceIPKcENSt15iterator_traitsIT_E15difference_typeES3_S3_St26random_access_iterator_tag
FN:138,_ZSt8distanceIPcENSt15iterator_traitsIT_E15difference_typeES2_S2_
FNDA:0,_ZSt8distanceIPcENSt15iterator_traitsIT_E15difference_typeES2_S2_
FN:138,_ZSt8distanceIPKcENSt15iterator_traitsIT_E15difference_typeES3_S3_
FNDA:0,_ZSt8distanceIPKcENSt15iterator_traitsIT_E15difference_typeES3_S3_
DA:98,0
DA:104,0
DA:98,0
DA:104,0
DA:138,0
DA:141,0
DA:142,0
DA:138,0
DA:141,0
DA:142,0
end_of_record
SF:/usr/include/c++/9/bits/basic_string.h
FN:243,_ZNSt7__cxx1112basic_stringIcSt11char_traitsIcESaIcEE16_M_construct_auxIPcEEvT_S7_St12__false_type
FNDA:0,_ZNSt7__cxx1112basic_stringIcSt11char_traitsIcESaIcEE16_M_construct_auxIPcEEvT_S7_St12__false_type
FN:243,_ZNSt7__cxx1112basic_stringIcSt11char_traitsIcESaIcEE16_M_construct_auxIPKcEEvT_S8_St12__false_type
FNDA:0,_ZNSt7__cxx1112basic_stringIcSt11char_traitsIcESaIcEE16_M_construct_auxIPKcEEvT_S8_St12__false_type
FN:263,_ZNSt7__cxx1112basic_stringIcSt11char_traitsIcESaIcEE12_M_constructIPcEEvT_S7_
FNDA:0,_ZNSt7__cxx1112basic_stringIcSt11char_traitsIcESaIcEE12_M_constructIPcEEvT_S7_
FN:263,_ZNSt7__cxx1112basic_stringIcSt11char_traitsIcESaIcEE12_M_constructIPKcEEvT_S8_
FNDA:0,_ZNSt7__cxx1112basic_stringIcSt11char_traitsIcESaIcEE12_M_constructIPKcEEvT_S8_
FN:6149,_ZSteqIcEN9__gnu_cxx11__enable_ifIXsrSt9__is_charIT_E7__valueEbE6__typeERKNSt7__cxx1112basic_stringIS3_St11char_traitsIS3_ESaIS3_EEESE_
FNDA:24,_ZSteqIcEN9__gnu_cxx11__enable_ifIXsrSt9__is_charIT_E7__valueEbE6__typeERKNSt7__cxx1112basic_stringIS3_St11char_traitsIS3_ESaIS3_EEESE_
DA:243,0
DA:247,0
DA:248,0
DA:243,0
DA:247,0
DA:248,0
DA:263,0
DA:266,0
DA:267,0
DA:263,0
DA:266,0
DA:267,0
DA:6149,24
DA:6151,24
DA:6152,24
DA:6153,24
end_of_record
SF:/usr/include/c++/9/bits/basic_string.tcc
FN:206,_ZNSt7__cxx1112basic_stringIcSt11char_traitsIcESaIcEE12_M_constructIPcEEvT_S7_St20forward_iterator_tag
FNDA:0,_ZNSt7__cxx1112basic_stringIcSt11char_traitsIcESaIcEE12_M_constructIPcEEvT_S7_St20forward_iterator_tag
FN:206,_ZNSt7__cxx1112basic_stringIcSt11char_traitsIcESaIcEE12_M_constructIPKcEEvT_S8_St20forward_iterator_tag
FNDA:0,_ZNSt7__cxx1112basic_stringIcSt11char_traitsIcESaIcEE12_M_constructIPKcEEvT_S8_St20forward_iterator_tag
DA:206,0
DA:211,0
DA:212,0
DA:215,0
DA:217,0
DA:219,0
DA:220,0
DA:225,0
DA:226,0
DA:228,0
DA:229,0
DA:232,0
DA:233,0
DA:206,0
DA:211,0
DA:212,0
DA:215,0
DA:217,0
DA:219,0
DA:220,0
DA:225,0
DA:226,0
DA:228,0
DA:229,0
DA:232,0
DA:233,0
end_of_record
SF:/usr/include/c++/9/iostream
end_of_record
SF:/home/ishansrt/stuff/aes/tests/test.cpp
FN:7,_ZN27StdTestCase1_KeyLen128_TestC2Ev
FNDA:1,_ZN27StdTestCase1_KeyLen128_TestC2Ev
FN:7,_ZN27StdTestCase1_KeyLen128_Test8TestBodyEv
FNDA:1,_ZN27StdTestCase1_KeyLen128_Test8TestBodyEv
FN:31,_ZN27StdTestCase1_KeyLen192_TestC2Ev
FNDA:1,_ZN27StdTestCase1_KeyLen192_TestC2Ev
FN:31,_ZN27StdTestCase1_KeyLen192_Test8TestBodyEv
FNDA:1,_ZN27StdTestCase1_KeyLen192_Test8TestBodyEv
FN:56,_ZN27StdTestCase1_KeyLen256_TestC2Ev
FNDA:1,_ZN27StdTestCase1_KeyLen256_TestC2Ev
FN:56,_ZN27StdTestCase1_KeyLen256_Test8TestBodyEv
FNDA:1,_ZN27StdTestCase1_KeyLen256_Test8TestBodyEv
FN:84,_ZN57WrongTestCaseStdTestCase1AesWorkingWith128_KeyLen256_TestC2Ev
FNDA:1,_ZN57WrongTestCaseStdTestCase1AesWorkingWith128_KeyLen256_TestC2Ev
FN:84,_ZN57WrongTestCaseStdTestCase1AesWorkingWith128_KeyLen256_Test8TestBodyEv
FNDA:1,_ZN57WrongTestCaseStdTestCase1AesWorkingWith128_KeyLen256_Test8TestBodyEv
FN:113,_ZN27StdTestCase2_KeyLen128_TestC2Ev
FNDA:1,_ZN27StdTestCase2_KeyLen128_TestC2Ev
FN:113,_ZN27StdTestCase2_KeyLen128_Test8TestBodyEv
FNDA:1,_ZN27StdTestCase2_KeyLen128_Test8TestBodyEv
FN:138,_ZN27StdTestCase2_KeyLen192_TestC2Ev
FNDA:1,_ZN27StdTestCase2_KeyLen192_TestC2Ev
FN:138,_ZN27StdTestCase2_KeyLen192_Test8TestBodyEv
FNDA:1,_ZN27StdTestCase2_KeyLen192_Test8TestBodyEv
FN:163,_ZN27StdTestCase2_KeyLen256_Test8TestBodyEv
FNDA:1,_ZN27StdTestCase2_KeyLen256_Test8TestBodyEv
FN:163,_ZN27StdTestCase2_KeyLen256_TestC2Ev
FNDA:1,_ZN27StdTestCase2_KeyLen256_TestC2Ev
FN:190,_ZN25TestECB_EncryptTest1_TestC2Ev
FNDA:1,_ZN25TestECB_EncryptTest1_TestC2Ev
FN:190,_ZN25TestECB_EncryptTest1_Test8TestBodyEv
FNDA:1,_ZN25TestECB_EncryptTest1_Test8TestBodyEv
FN:201,_ZN25TestECB_DecryptTest1_TestC2Ev
FNDA:1,_ZN25TestECB_DecryptTest1_TestC2Ev
FN:201,_ZN25TestECB_DecryptTest1_Test8TestBodyEv
FNDA:1,_ZN25TestECB_DecryptTest1_Test8TestBodyEv
FN:212,_ZN18TestCBC_Test1_TestC2Ev
FNDA:1,_ZN18TestCBC_Test1_TestC2Ev
FN:212,_ZN18TestCBC_Test1_Test8TestBodyEv
FNDA:1,_ZN18TestCBC_Test1_Test8TestBodyEv
FN:241,_ZN18TestOFB_Test1_TestC2Ev
FNDA:1,_ZN18TestOFB_Test1_TestC2Ev
FN:241,_ZN18TestOFB_Test1_Test8TestBodyEv
FNDA:1,_ZN18TestOFB_Test1_Test8TestBodyEv
FN:270,_ZN46TestOFB_TestMessagenotmultipleofblocksize_TestC2Ev
FNDA:1,_ZN46TestOFB_TestMessagenotmultipleofblocksize_TestC2Ev
FN:270,_ZN46TestOFB_TestMessagenotmultipleofblocksize_Test8TestBodyEv
FNDA:1,_ZN46TestOFB_TestMessagenotmultipleofblocksize_Test8TestBodyEv
FN:299,_ZN18TestCTR_Test1_TestC2Ev
FNDA:1,_ZN18TestCTR_Test1_TestC2Ev
FN:299,_ZN18TestCTR_Test1_Test8TestBodyEv
FNDA:1,_ZN18TestCTR_Test1_Test8TestBodyEv
FN:324,main
FNDA:1,main
DA:7,1
DA:9,1
DA:10,1
DA:11,1
DA:14,1
DA:15,5
DA:17,4
DA:20,1
DA:22,1
DA:23,1
DA:24,2
DA:26,1
DA:27,1
DA:28,2
DA:7,1
DA:31,1
DA:33,1
DA:34,1
DA:35,1
DA:39,1
DA:40,5
DA:42,4
DA:45,1
DA:47,1
DA:48,1
DA:49,2
DA:51,1
DA:52,1
DA:53,3
DA:31,1
DA:56,1
DA:58,1
DA:59,1
DA:60,1
DA:64,1
DA:65,5
DA:67,4
DA:70,1
DA:72,1
DA:73,1
DA:74,2
DA:76,1
DA:77,1
DA:78,3
DA:56,1
DA:84,1
DA:86,1
DA:87,1
DA:88,1
DA:92,1
DA:93,5
DA:95,4
DA:98,1
DA:100,1
DA:101,1
DA:102,2
DA:104,1
DA:105,1
DA:106,3
DA:84,1
DA:113,1
DA:115,1
DA:116,1
DA:117,1
DA:121,1
DA:122,5
DA:124,4
DA:127,1
DA:129,1
DA:130,1
DA:131,2
DA:133,1
DA:134,1
DA:135,3
DA:113,1
DA:138,1
DA:140,1
DA:141,1
DA:142,1
DA:146,1
DA:147,5
DA:149,4
DA:152,1
DA:154,1
DA:155,1
DA:156,2
DA:158,1
DA:159,1
DA:160,3
DA:138,1
DA:163,1
DA:165,1
DA:166,1
DA:167,1
DA:169,1
DA:173,1
DA:174,5
DA:176,4
DA:179,1
DA:181,1
DA:182,1
DA:183,2
DA:185,1
DA:186,1
DA:187,3
DA:163,1
DA:190,1
DA:192,1
DA:193,1
DA:195,1
DA:196,1
DA:197,1
DA:198,2
DA:190,1
DA:201,1
DA:203,1
DA:204,1
DA:205,1
DA:207,1
DA:208,1
DA:209,2
DA:201,1
DA:212,1
DA:214,1
DA:215,1
DA:220,1
DA:221,1
DA:226,1
DA:227,1
DA:229,2
DA:231,1
DA:236,1
DA:237,2
DA:212,1
DA:241,1
DA:243,1
DA:245,1
DA:250,1
DA:251,1
DA:255,1
DA:256,1
DA:258,2
DA:260,1
DA:265,1
DA:266,2
DA:241,1
DA:270,1
DA:272,1
DA:274,1
DA:279,1
DA:280,1
DA:284,1
DA:285,1
DA:287,2
DA:289,1
DA:294,1
DA:295,2
DA:270,1
DA:299,1
DA:301,1
DA:302,1
DA:303,1
DA:307,1
DA:308,1
DA:313,1
DA:314,2
DA:316,1
DA:320,1
DA:321,2
DA:299,1
DA:324,1
DA:326,1
DA:327,1
end_of_record
SF:/usr/include/c++/9/ext/alloc_traits.h
FN:97,_ZN9__gnu_cxx14__alloc_traitsISaIcEcE17_S_select_on_copyERKS1_
FNDA:0,_ZN9__gnu_cxx14__alloc_traitsISaIcEcE17_S_select_on_copyERKS1_
DA:97,0
DA:98,0
end_of_record
SF:/usr/include/c++/9/cmath
FN:272,_ZSt5floorIiEN9__gnu_cxx11__enable_ifIXsrSt12__is_integerIT_E7__valueEdE6__typeES3_
FNDA:48,_ZSt5floorIiEN9__gnu_cxx11__enable_ifIXsrSt12__is_integerIT_E7__valueEdE6__typeES3_
DA:272,48
DA:273,48
end_of_record
SF:/usr/include/gtest/gtest-message.h
end_of_record
SF:/usr/include/c++/9/bits/ios_base.h
FN:83,_ZStanSt13_Ios_FmtflagsS_
FNDA:1628,_ZStanSt13_Ios_FmtflagsS_
FN:87,_ZStorSt13_Ios_FmtflagsS_
FNDA:814,_ZStorSt13_Ios_FmtflagsS_
FN:95,_ZStcoSt13_Ios_Fmtflags
FNDA:814,_ZStcoSt13_Ios_Fmtflags
FN:99,_ZStoRRSt13_Ios_FmtflagsS_
FNDA:814,_ZStoRRSt13_Ios_FmtflagsS_
FN:103,_ZStaNRSt13_Ios_FmtflagsS_
FNDA:814,_ZStaNRSt13_Ios_FmtflagsS_
FN:670,_ZNSt8ios_base4setfESt13_Ios_FmtflagsS0_
FNDA:814,_ZNSt8ios_base4setfESt13_Ios_FmtflagsS0_
FN:1031,_ZSt3hexRSt8ios_base
FNDA:814,_ZSt3hexRSt8ios_base
DA:83,1628
DA:84,1628
DA:87,814
DA:88,814
DA:95,814
DA:96,814
DA:99,814
DA:100,814
DA:103,814
DA:104,814
DA:670,814
DA:672,814
DA:673,814
DA:674,814
DA:675,814
DA:1031,814
DA:1033,814
DA:1034,814
end_of_record
SF:/usr/include/c++/9/bits/move.h
FN:99,_ZSt4moveIRPNSt7__cxx1112basic_stringIcSt11char_traitsIcESaIcEEEEONSt16remove_referenceIT_E4typeEOS9_
FNDA:0,_ZSt4moveIRPNSt7__cxx1112basic_stringIcSt11char_traitsIcESaIcEEEEONSt16remove_referenceIT_E4typeEOS9_
FN:99,_ZSt4moveIRPNSt7__cxx1118basic_stringstreamIcSt11char_traitsIcESaIcEEEEONSt16remove_referenceIT_E4typeEOS9_
FNDA:0,_ZSt4moveIRPNSt7__cxx1118basic_stringstreamIcSt11char_traitsIcESaIcEEEEONSt16remove_referenceIT_E4typeEOS9_
FN:99,_ZSt4moveIRSaIcEEONSt16remove_referenceIT_E4typeEOS3_
FNDA:0,_ZSt4moveIRSaIcEEONSt16remove_referenceIT_E4typeEOS3_
DA:99,0
DA:100,0
DA:99,0
DA:100,0
DA:99,0
DA:100,0
end_of_record
SF:/usr/include/c++/9/bits/unique_ptr.h
FN:75,_ZNKSt14default_deleteINSt7__cxx1112basic_stringIcSt11char_traitsIcESaIcEEEEclEPS5_
FNDA:0,_ZNKSt14default_deleteINSt7__cxx1112basic_stringIcSt11char_traitsIcESaIcEEEEclEPS5_
FN:75,_ZNKSt14default_deleteINSt7__cxx1118basic_stringstreamIcSt11char_traitsIcESaIcEEEEclEPS5_
FNDA:0,_ZNKSt14default_deleteINSt7__cxx1118basic_stringstreamIcSt11char_traitsIcESaIcEEEEclEPS5_
FN:153,_ZNSt15__uniq_ptr_implINSt7__cxx1112basic_stringIcSt11char_traitsIcESaIcEEESt14default_deleteIS5_EE6_M_ptrEv
FNDA:24,_ZNSt15__uniq_ptr_implINSt7__cxx1112basic_stringIcSt11char_traitsIcESaIcEEESt14default_deleteIS5_EE6_M_ptrEv
FN:153,_ZNSt15__uniq_ptr_implINSt7__cxx1118basic_stringstreamIcSt11char_traitsIcESaIcEEESt14default_deleteIS5_EE6_M_ptrEv
FNDA:0,_ZNSt15__uniq_ptr_implINSt7__cxx1118basic_stringstreamIcSt11char_traitsIcESaIcEEESt14default_deleteIS5_EE6_M_ptrEv
FN:154,_ZNKSt15__uniq_ptr_implINSt7__cxx1112basic_stringIcSt11char_traitsIcESaIcEEESt14default_deleteIS5_EE6_M_ptrEv
FNDA:0,_ZNKSt15__uniq_ptr_implINSt7__cxx1112basic_stringIcSt11char_traitsIcESaIcEEESt14default_deleteIS5_EE6_M_ptrEv
FN:155,_ZNSt15__uniq_ptr_implINSt7__cxx1112basic_stringIcSt11char_traitsIcESaIcEEESt14default_deleteIS5_EE10_M_deleterEv
FNDA:0,_ZNSt15__uniq_ptr_implINSt7__cxx1112basic_stringIcSt11char_traitsIcESaIcEEESt14default_deleteIS5_EE10_M_deleterEv
FN:155,_ZNSt15__uniq_ptr_implINSt7__cxx1118basic_stringstreamIcSt11char_traitsIcESaIcEEESt14default_deleteIS5_EE10_M_deleterEv
FNDA:0,_ZNSt15__uniq_ptr_implINSt7__cxx1118basic_stringstreamIcSt11char_traitsIcESaIcEEESt14default_deleteIS5_EE10_M_deleterEv
FN:286,_ZNSt10unique_ptrINSt7__cxx1112basic_stringIcSt11char_traitsIcESaIcEEESt14default_deleteIS5_EED2Ev
FNDA:24,_ZNSt10unique_ptrINSt7__cxx1112basic_stringIcSt11char_traitsIcESaIcEEESt14default_deleteIS5_EED2Ev
FN:286,_ZNSt10unique_ptrINSt7__cxx1118basic_stringstreamIcSt11char_traitsIcESaIcEEESt14default_deleteIS5_EED2Ev
FNDA:0,_ZNSt10unique_ptrINSt7__cxx1118basic_stringstreamIcSt11char_traitsIcESaIcEEESt14default_deleteIS5_EED2Ev
FN:352,_ZNKSt10unique_ptrINSt7__cxx1112basic_stringIcSt11char_traitsIcESaIcEEESt14default_deleteIS5_EEptEv
FNDA:0,_ZNKSt10unique_ptrINSt7__cxx1112basic_stringIcSt11char_traitsIcESaIcEEESt14default_deleteIS5_EEptEv
FN:360,_ZNKSt10unique_ptrINSt7__cxx1112basic_stringIcSt11char_traitsIcESaIcEEESt14default_deleteIS5_EE3getEv
FNDA:0,_ZNKSt10unique_ptrINSt7__cxx1112basic_stringIcSt11char_traitsIcESaIcEEESt14default_deleteIS5_EE3getEv
FN:365,_ZNSt10unique_ptrINSt7__cxx1112basic_stringIcSt11char_traitsIcESaIcEEESt14default_deleteIS5_EE11get_deleterEv
FNDA:0,_ZNSt10unique_ptrINSt7__cxx1112basic_stringIcSt11char_traitsIcESaIcEEESt14default_deleteIS5_EE11get_deleterEv
FN:365,_ZNSt10unique_ptrINSt7__cxx1118basic_stringstreamIcSt11char_traitsIcESaIcEEESt14default_deleteIS5_EE11get_deleterEv
FNDA:0,_ZNSt10unique_ptrINSt7__cxx1118basic_stringstreamIcSt11char_traitsIcESaIcEEESt14default_deleteIS5_EE11get_deleterEv
DA:75,0
DA:81,0
DA:82,0
DA:75,0
DA:81,0
DA:82,0
DA:153,24
DA:153,0
DA:154,0
DA:155,0
DA:155,0
DA:286,24
DA:290,24
DA:291,24
DA:292,0
DA:293,24
DA:294,24
DA:286,0
DA:290,0
DA:291,0
DA:292,0
DA:293,0
DA:294,0
DA:352,0
DA:355,0
DA:360,0
DA:361,0
DA:365,0
DA:366,0
DA:365,0
DA:366,0
end_of_record
SF:/usr/include/c++/9/ext/new_allocator.h
FN:80,_ZN9__gnu_cxx13new_allocatorIcEC2Ev
FNDA:0,_ZN9__gnu_cxx13new_allocatorIcEC2Ev
FN:83,_ZN9__gnu_cxx13new_allocatorIcEC2ERKS1_
FNDA:0,_ZN9__gnu_cxx13new_allocatorIcEC2ERKS1_
FN:89,_ZN9__gnu_cxx13new_allocatorIcED2Ev
FNDA:0,_ZN9__gnu_cxx13new_allocatorIcED2Ev
DA:80,0
DA:83,0
DA:89,0
end_of_record
SF:/usr/include/c++/9/bits/char_traits.h
FN:315,_ZNSt11char_traitsIcE7compareEPKcS2_m
FNDA:24,_ZNSt11char_traitsIcE7compareEPKcS2_m
FN:329,_ZNSt11char_traitsIcE6lengthEPKc
FNDA:0,_ZNSt11char_traitsIcE6lengthEPKc
DA:315,24
DA:317,24
DA:318,0
DA:325,24
DA:329,0
DA:335,0
end_of_record
SF:/usr/include/c++/9/ext/type_traits.h
FN:152,_ZN9__gnu_cxx17__is_null_pointerIcEEbPT_
FNDA:0,_ZN9__gnu_cxx17__is_null_pointerIcEEbPT_
FN:152,_ZN9__gnu_cxx17__is_null_pointerIKcEEbPT_
FNDA:0,_ZN9__gnu_cxx17__is_null_pointerIKcEEbPT_
DA:152,0
DA:153,0
DA:152,0
DA:153,0
end_of_record
